
kernel/kernel:     file format elf64-littleriscv


Disassembly of section .text:

0000000080000000 <_entry>:
    80000000:	0025e117          	auipc	sp,0x25e
    80000004:	14010113          	addi	sp,sp,320 # 8025e140 <stack0>
    80000008:	6505                	lui	a0,0x1
    8000000a:	f14025f3          	csrr	a1,mhartid
    8000000e:	0585                	addi	a1,a1,1
    80000010:	02b50533          	mul	a0,a0,a1
    80000014:	912a                	add	sp,sp,a0
    80000016:	231050ef          	jal	80005a46 <start>

000000008000001a <spin>:
    8000001a:	a001                	j	8000001a <spin>

000000008000001c <refcnt_incr>:
  struct spinlock lock; // protects freelist
  int refcnt_array[PA2PPIDX(PHYSTOP) + 1]; // reference count for each physical page
} refcnt_recorder;

int refcnt_incr(uint64 pa)
{
    8000001c:	1101                	addi	sp,sp,-32
    8000001e:	ec06                	sd	ra,24(sp)
    80000020:	e822                	sd	s0,16(sp)
    80000022:	e426                	sd	s1,8(sp)
    80000024:	1000                	addi	s0,sp,32
    80000026:	84aa                	mv	s1,a0
  acquire(&refcnt_recorder.lock);
    80000028:	00009517          	auipc	a0,0x9
    8000002c:	02850513          	addi	a0,a0,40 # 80009050 <refcnt_recorder>
    80000030:	00006097          	auipc	ra,0x6
    80000034:	462080e7          	jalr	1122(ra) # 80006492 <acquire>
  int refcnt = ++refcnt_recorder.refcnt_array[PA2PPIDX(pa)];
    80000038:	800007b7          	lui	a5,0x80000
    8000003c:	97a6                	add	a5,a5,s1
    8000003e:	83b1                	srli	a5,a5,0xc
    80000040:	00009517          	auipc	a0,0x9
    80000044:	01050513          	addi	a0,a0,16 # 80009050 <refcnt_recorder>
    80000048:	0791                	addi	a5,a5,4 # ffffffff80000004 <end+0xfffffffeffd99dc4>
    8000004a:	078a                	slli	a5,a5,0x2
    8000004c:	97aa                	add	a5,a5,a0
    8000004e:	4784                	lw	s1,8(a5)
    80000050:	2485                	addiw	s1,s1,1
    80000052:	c784                	sw	s1,8(a5)
  release(&refcnt_recorder.lock);
    80000054:	00006097          	auipc	ra,0x6
    80000058:	4ee080e7          	jalr	1262(ra) # 80006542 <release>
  return refcnt;
}
    8000005c:	8526                	mv	a0,s1
    8000005e:	60e2                	ld	ra,24(sp)
    80000060:	6442                	ld	s0,16(sp)
    80000062:	64a2                	ld	s1,8(sp)
    80000064:	6105                	addi	sp,sp,32
    80000066:	8082                	ret

0000000080000068 <refcnt_decr>:

int refcnt_decr(uint64 pa)
{
    80000068:	1101                	addi	sp,sp,-32
    8000006a:	ec06                	sd	ra,24(sp)
    8000006c:	e822                	sd	s0,16(sp)
    8000006e:	e426                	sd	s1,8(sp)
    80000070:	1000                	addi	s0,sp,32
    80000072:	84aa                	mv	s1,a0
  acquire(&refcnt_recorder.lock);
    80000074:	00009517          	auipc	a0,0x9
    80000078:	fdc50513          	addi	a0,a0,-36 # 80009050 <refcnt_recorder>
    8000007c:	00006097          	auipc	ra,0x6
    80000080:	416080e7          	jalr	1046(ra) # 80006492 <acquire>
  int refcnt = --refcnt_recorder.refcnt_array[PA2PPIDX(pa)];
    80000084:	800007b7          	lui	a5,0x80000
    80000088:	97a6                	add	a5,a5,s1
    8000008a:	83b1                	srli	a5,a5,0xc
    8000008c:	00009517          	auipc	a0,0x9
    80000090:	fc450513          	addi	a0,a0,-60 # 80009050 <refcnt_recorder>
    80000094:	0791                	addi	a5,a5,4 # ffffffff80000004 <end+0xfffffffeffd99dc4>
    80000096:	078a                	slli	a5,a5,0x2
    80000098:	97aa                	add	a5,a5,a0
    8000009a:	4784                	lw	s1,8(a5)
    8000009c:	34fd                	addiw	s1,s1,-1
    8000009e:	c784                	sw	s1,8(a5)
  release(&refcnt_recorder.lock);
    800000a0:	00006097          	auipc	ra,0x6
    800000a4:	4a2080e7          	jalr	1186(ra) # 80006542 <release>
  return refcnt;
}
    800000a8:	8526                	mv	a0,s1
    800000aa:	60e2                	ld	ra,24(sp)
    800000ac:	6442                	ld	s0,16(sp)
    800000ae:	64a2                	ld	s1,8(sp)
    800000b0:	6105                	addi	sp,sp,32
    800000b2:	8082                	ret

00000000800000b4 <kfree>:
// which normally should have been returned by a
// call to kalloc().  (The exception is when
// initializing the allocator; see kinit above.)
void
kfree(void *pa)
{
    800000b4:	1101                	addi	sp,sp,-32
    800000b6:	ec06                	sd	ra,24(sp)
    800000b8:	e822                	sd	s0,16(sp)
    800000ba:	e426                	sd	s1,8(sp)
    800000bc:	1000                	addi	s0,sp,32
  struct run *r;

  if(((uint64)pa % PGSIZE) != 0 || (char*)pa < end || (uint64)pa >= PHYSTOP)
    800000be:	03451793          	slli	a5,a0,0x34
    800000c2:	e79d                	bnez	a5,800000f0 <kfree+0x3c>
    800000c4:	84aa                	mv	s1,a0
    800000c6:	00266797          	auipc	a5,0x266
    800000ca:	17a78793          	addi	a5,a5,378 # 80266240 <end>
    800000ce:	02f56163          	bltu	a0,a5,800000f0 <kfree+0x3c>
    800000d2:	47c5                	li	a5,17
    800000d4:	07ee                	slli	a5,a5,0x1b
    800000d6:	00f57d63          	bgeu	a0,a5,800000f0 <kfree+0x3c>
    panic("kfree");

  int ref = refcnt_decr((uint64)pa);
    800000da:	00000097          	auipc	ra,0x0
    800000de:	f8e080e7          	jalr	-114(ra) # 80000068 <refcnt_decr>
  if(ref > 0)
    800000e2:	02a05063          	blez	a0,80000102 <kfree+0x4e>

  acquire(&kmem.lock);
  r->next = kmem.freelist;
  kmem.freelist = r;
  release(&kmem.lock);
}
    800000e6:	60e2                	ld	ra,24(sp)
    800000e8:	6442                	ld	s0,16(sp)
    800000ea:	64a2                	ld	s1,8(sp)
    800000ec:	6105                	addi	sp,sp,32
    800000ee:	8082                	ret
    800000f0:	e04a                	sd	s2,0(sp)
    panic("kfree");
    800000f2:	00008517          	auipc	a0,0x8
    800000f6:	f0e50513          	addi	a0,a0,-242 # 80008000 <etext>
    800000fa:	00006097          	auipc	ra,0x6
    800000fe:	e18080e7          	jalr	-488(ra) # 80005f12 <panic>
    80000102:	e04a                	sd	s2,0(sp)
  memset(pa, 1, PGSIZE);
    80000104:	6605                	lui	a2,0x1
    80000106:	4585                	li	a1,1
    80000108:	8526                	mv	a0,s1
    8000010a:	00000097          	auipc	ra,0x0
    8000010e:	1ae080e7          	jalr	430(ra) # 800002b8 <memset>
  acquire(&kmem.lock);
    80000112:	00009917          	auipc	s2,0x9
    80000116:	f1e90913          	addi	s2,s2,-226 # 80009030 <kmem>
    8000011a:	854a                	mv	a0,s2
    8000011c:	00006097          	auipc	ra,0x6
    80000120:	376080e7          	jalr	886(ra) # 80006492 <acquire>
  r->next = kmem.freelist;
    80000124:	01893783          	ld	a5,24(s2)
    80000128:	e09c                	sd	a5,0(s1)
  kmem.freelist = r;
    8000012a:	00993c23          	sd	s1,24(s2)
  release(&kmem.lock);
    8000012e:	854a                	mv	a0,s2
    80000130:	00006097          	auipc	ra,0x6
    80000134:	412080e7          	jalr	1042(ra) # 80006542 <release>
    80000138:	6902                	ld	s2,0(sp)
    8000013a:	b775                	j	800000e6 <kfree+0x32>

000000008000013c <freerange>:
{
    8000013c:	715d                	addi	sp,sp,-80
    8000013e:	e486                	sd	ra,72(sp)
    80000140:	e0a2                	sd	s0,64(sp)
    80000142:	fc26                	sd	s1,56(sp)
    80000144:	0880                	addi	s0,sp,80
  p = (char*)PGROUNDUP((uint64)pa_start);
    80000146:	6785                	lui	a5,0x1
    80000148:	fff78713          	addi	a4,a5,-1 # fff <_entry-0x7ffff001>
    8000014c:	00e504b3          	add	s1,a0,a4
    80000150:	777d                	lui	a4,0xfffff
    80000152:	8cf9                	and	s1,s1,a4
  for(; p + PGSIZE <= (char*)pa_end; p += PGSIZE) {
    80000154:	94be                	add	s1,s1,a5
    80000156:	0695e563          	bltu	a1,s1,800001c0 <freerange+0x84>
    8000015a:	f84a                	sd	s2,48(sp)
    8000015c:	f44e                	sd	s3,40(sp)
    8000015e:	f052                	sd	s4,32(sp)
    80000160:	ec56                	sd	s5,24(sp)
    80000162:	e85a                	sd	s6,16(sp)
    80000164:	e45e                	sd	s7,8(sp)
    80000166:	8a2e                	mv	s4,a1
    acquire(&refcnt_recorder.lock);
    80000168:	00009917          	auipc	s2,0x9
    8000016c:	ee890913          	addi	s2,s2,-280 # 80009050 <refcnt_recorder>
    refcnt_recorder.refcnt_array[PA2PPIDX(p)] = 1; // initialize reference count
    80000170:	fff809b7          	lui	s3,0xfff80
    80000174:	19fd                	addi	s3,s3,-1 # fffffffffff7ffff <end+0xffffffff7fd19dbf>
    80000176:	09b2                	slli	s3,s3,0xc
    80000178:	4b85                	li	s7,1
    kfree(p);
    8000017a:	8b3a                	mv	s6,a4
  for(; p + PGSIZE <= (char*)pa_end; p += PGSIZE) {
    8000017c:	8abe                	mv	s5,a5
    acquire(&refcnt_recorder.lock);
    8000017e:	854a                	mv	a0,s2
    80000180:	00006097          	auipc	ra,0x6
    80000184:	312080e7          	jalr	786(ra) # 80006492 <acquire>
    refcnt_recorder.refcnt_array[PA2PPIDX(p)] = 1; // initialize reference count
    80000188:	013487b3          	add	a5,s1,s3
    8000018c:	83b1                	srli	a5,a5,0xc
    8000018e:	0791                	addi	a5,a5,4
    80000190:	078a                	slli	a5,a5,0x2
    80000192:	97ca                	add	a5,a5,s2
    80000194:	0177a423          	sw	s7,8(a5)
    release(&refcnt_recorder.lock);
    80000198:	854a                	mv	a0,s2
    8000019a:	00006097          	auipc	ra,0x6
    8000019e:	3a8080e7          	jalr	936(ra) # 80006542 <release>
    kfree(p);
    800001a2:	01648533          	add	a0,s1,s6
    800001a6:	00000097          	auipc	ra,0x0
    800001aa:	f0e080e7          	jalr	-242(ra) # 800000b4 <kfree>
  for(; p + PGSIZE <= (char*)pa_end; p += PGSIZE) {
    800001ae:	94d6                	add	s1,s1,s5
    800001b0:	fc9a77e3          	bgeu	s4,s1,8000017e <freerange+0x42>
    800001b4:	7942                	ld	s2,48(sp)
    800001b6:	79a2                	ld	s3,40(sp)
    800001b8:	7a02                	ld	s4,32(sp)
    800001ba:	6ae2                	ld	s5,24(sp)
    800001bc:	6b42                	ld	s6,16(sp)
    800001be:	6ba2                	ld	s7,8(sp)
}
    800001c0:	60a6                	ld	ra,72(sp)
    800001c2:	6406                	ld	s0,64(sp)
    800001c4:	74e2                	ld	s1,56(sp)
    800001c6:	6161                	addi	sp,sp,80
    800001c8:	8082                	ret

00000000800001ca <kinit>:
{
    800001ca:	1141                	addi	sp,sp,-16
    800001cc:	e406                	sd	ra,8(sp)
    800001ce:	e022                	sd	s0,0(sp)
    800001d0:	0800                	addi	s0,sp,16
  initlock(&kmem.lock, "kmem");
    800001d2:	00008597          	auipc	a1,0x8
    800001d6:	e3e58593          	addi	a1,a1,-450 # 80008010 <etext+0x10>
    800001da:	00009517          	auipc	a0,0x9
    800001de:	e5650513          	addi	a0,a0,-426 # 80009030 <kmem>
    800001e2:	00006097          	auipc	ra,0x6
    800001e6:	21c080e7          	jalr	540(ra) # 800063fe <initlock>
  initlock(&refcnt_recorder.lock, "refcnt_recorder");
    800001ea:	00008597          	auipc	a1,0x8
    800001ee:	e2e58593          	addi	a1,a1,-466 # 80008018 <etext+0x18>
    800001f2:	00009517          	auipc	a0,0x9
    800001f6:	e5e50513          	addi	a0,a0,-418 # 80009050 <refcnt_recorder>
    800001fa:	00006097          	auipc	ra,0x6
    800001fe:	204080e7          	jalr	516(ra) # 800063fe <initlock>
  freerange(end, (void*)PHYSTOP);
    80000202:	45c5                	li	a1,17
    80000204:	05ee                	slli	a1,a1,0x1b
    80000206:	00266517          	auipc	a0,0x266
    8000020a:	03a50513          	addi	a0,a0,58 # 80266240 <end>
    8000020e:	00000097          	auipc	ra,0x0
    80000212:	f2e080e7          	jalr	-210(ra) # 8000013c <freerange>
}
    80000216:	60a2                	ld	ra,8(sp)
    80000218:	6402                	ld	s0,0(sp)
    8000021a:	0141                	addi	sp,sp,16
    8000021c:	8082                	ret

000000008000021e <kalloc>:
// Allocate one 4096-byte page of physical memory.
// Returns a pointer that the kernel can use.
// Returns 0 if the memory cannot be allocated.
void *
kalloc(void)
{
    8000021e:	1101                	addi	sp,sp,-32
    80000220:	ec06                	sd	ra,24(sp)
    80000222:	e822                	sd	s0,16(sp)
    80000224:	e426                	sd	s1,8(sp)
    80000226:	1000                	addi	s0,sp,32
  struct run *r;

  acquire(&kmem.lock);
    80000228:	00009497          	auipc	s1,0x9
    8000022c:	e0848493          	addi	s1,s1,-504 # 80009030 <kmem>
    80000230:	8526                	mv	a0,s1
    80000232:	00006097          	auipc	ra,0x6
    80000236:	260080e7          	jalr	608(ra) # 80006492 <acquire>
  r = kmem.freelist;
    8000023a:	6c84                	ld	s1,24(s1)
  if(r) {
    8000023c:	c4ad                	beqz	s1,800002a6 <kalloc+0x88>
    8000023e:	e04a                	sd	s2,0(sp)
    kmem.freelist = r->next;
    80000240:	609c                	ld	a5,0(s1)
    80000242:	00009917          	auipc	s2,0x9
    80000246:	dee90913          	addi	s2,s2,-530 # 80009030 <kmem>
    8000024a:	00f93c23          	sd	a5,24(s2)
    acquire(&refcnt_recorder.lock);
    8000024e:	00009517          	auipc	a0,0x9
    80000252:	e0250513          	addi	a0,a0,-510 # 80009050 <refcnt_recorder>
    80000256:	00006097          	auipc	ra,0x6
    8000025a:	23c080e7          	jalr	572(ra) # 80006492 <acquire>
    refcnt_recorder.refcnt_array[PA2PPIDX(r)] = 1; // reset reference count
    8000025e:	00009517          	auipc	a0,0x9
    80000262:	df250513          	addi	a0,a0,-526 # 80009050 <refcnt_recorder>
    80000266:	800007b7          	lui	a5,0x80000
    8000026a:	97a6                	add	a5,a5,s1
    8000026c:	83b1                	srli	a5,a5,0xc
    8000026e:	0791                	addi	a5,a5,4 # ffffffff80000004 <end+0xfffffffeffd99dc4>
    80000270:	078a                	slli	a5,a5,0x2
    80000272:	97aa                	add	a5,a5,a0
    80000274:	4705                	li	a4,1
    80000276:	c798                	sw	a4,8(a5)
    release(&refcnt_recorder.lock);
    80000278:	00006097          	auipc	ra,0x6
    8000027c:	2ca080e7          	jalr	714(ra) # 80006542 <release>
  }  
  release(&kmem.lock);
    80000280:	854a                	mv	a0,s2
    80000282:	00006097          	auipc	ra,0x6
    80000286:	2c0080e7          	jalr	704(ra) # 80006542 <release>

  if(r) {
    memset((char*)r, 5, PGSIZE); // fill with junk
    8000028a:	6605                	lui	a2,0x1
    8000028c:	4595                	li	a1,5
    8000028e:	8526                	mv	a0,s1
    80000290:	00000097          	auipc	ra,0x0
    80000294:	028080e7          	jalr	40(ra) # 800002b8 <memset>
  }
    
  return (void*)r;
    80000298:	6902                	ld	s2,0(sp)
}
    8000029a:	8526                	mv	a0,s1
    8000029c:	60e2                	ld	ra,24(sp)
    8000029e:	6442                	ld	s0,16(sp)
    800002a0:	64a2                	ld	s1,8(sp)
    800002a2:	6105                	addi	sp,sp,32
    800002a4:	8082                	ret
  release(&kmem.lock);
    800002a6:	00009517          	auipc	a0,0x9
    800002aa:	d8a50513          	addi	a0,a0,-630 # 80009030 <kmem>
    800002ae:	00006097          	auipc	ra,0x6
    800002b2:	294080e7          	jalr	660(ra) # 80006542 <release>
  if(r) {
    800002b6:	b7d5                	j	8000029a <kalloc+0x7c>

00000000800002b8 <memset>:
#include "types.h"

void*
memset(void *dst, int c, uint n)
{
    800002b8:	1141                	addi	sp,sp,-16
    800002ba:	e406                	sd	ra,8(sp)
    800002bc:	e022                	sd	s0,0(sp)
    800002be:	0800                	addi	s0,sp,16
  char *cdst = (char *) dst;
  int i;
  for(i = 0; i < n; i++){
    800002c0:	ca19                	beqz	a2,800002d6 <memset+0x1e>
    800002c2:	87aa                	mv	a5,a0
    800002c4:	1602                	slli	a2,a2,0x20
    800002c6:	9201                	srli	a2,a2,0x20
    800002c8:	00a60733          	add	a4,a2,a0
    cdst[i] = c;
    800002cc:	00b78023          	sb	a1,0(a5)
  for(i = 0; i < n; i++){
    800002d0:	0785                	addi	a5,a5,1
    800002d2:	fee79de3          	bne	a5,a4,800002cc <memset+0x14>
  }
  return dst;
}
    800002d6:	60a2                	ld	ra,8(sp)
    800002d8:	6402                	ld	s0,0(sp)
    800002da:	0141                	addi	sp,sp,16
    800002dc:	8082                	ret

00000000800002de <memcmp>:

int
memcmp(const void *v1, const void *v2, uint n)
{
    800002de:	1141                	addi	sp,sp,-16
    800002e0:	e406                	sd	ra,8(sp)
    800002e2:	e022                	sd	s0,0(sp)
    800002e4:	0800                	addi	s0,sp,16
  const uchar *s1, *s2;

  s1 = v1;
  s2 = v2;
  while(n-- > 0){
    800002e6:	ca0d                	beqz	a2,80000318 <memcmp+0x3a>
    800002e8:	fff6069b          	addiw	a3,a2,-1 # fff <_entry-0x7ffff001>
    800002ec:	1682                	slli	a3,a3,0x20
    800002ee:	9281                	srli	a3,a3,0x20
    800002f0:	0685                	addi	a3,a3,1
    800002f2:	96aa                	add	a3,a3,a0
    if(*s1 != *s2)
    800002f4:	00054783          	lbu	a5,0(a0)
    800002f8:	0005c703          	lbu	a4,0(a1)
    800002fc:	00e79863          	bne	a5,a4,8000030c <memcmp+0x2e>
      return *s1 - *s2;
    s1++, s2++;
    80000300:	0505                	addi	a0,a0,1
    80000302:	0585                	addi	a1,a1,1
  while(n-- > 0){
    80000304:	fed518e3          	bne	a0,a3,800002f4 <memcmp+0x16>
  }

  return 0;
    80000308:	4501                	li	a0,0
    8000030a:	a019                	j	80000310 <memcmp+0x32>
      return *s1 - *s2;
    8000030c:	40e7853b          	subw	a0,a5,a4
}
    80000310:	60a2                	ld	ra,8(sp)
    80000312:	6402                	ld	s0,0(sp)
    80000314:	0141                	addi	sp,sp,16
    80000316:	8082                	ret
  return 0;
    80000318:	4501                	li	a0,0
    8000031a:	bfdd                	j	80000310 <memcmp+0x32>

000000008000031c <memmove>:

void*
memmove(void *dst, const void *src, uint n)
{
    8000031c:	1141                	addi	sp,sp,-16
    8000031e:	e406                	sd	ra,8(sp)
    80000320:	e022                	sd	s0,0(sp)
    80000322:	0800                	addi	s0,sp,16
  const char *s;
  char *d;

  if(n == 0)
    80000324:	c205                	beqz	a2,80000344 <memmove+0x28>
    return dst;
  
  s = src;
  d = dst;
  if(s < d && s + n > d){
    80000326:	02a5e363          	bltu	a1,a0,8000034c <memmove+0x30>
    s += n;
    d += n;
    while(n-- > 0)
      *--d = *--s;
  } else
    while(n-- > 0)
    8000032a:	1602                	slli	a2,a2,0x20
    8000032c:	9201                	srli	a2,a2,0x20
    8000032e:	00c587b3          	add	a5,a1,a2
{
    80000332:	872a                	mv	a4,a0
      *d++ = *s++;
    80000334:	0585                	addi	a1,a1,1
    80000336:	0705                	addi	a4,a4,1 # fffffffffffff001 <end+0xffffffff7fd98dc1>
    80000338:	fff5c683          	lbu	a3,-1(a1)
    8000033c:	fed70fa3          	sb	a3,-1(a4)
    while(n-- > 0)
    80000340:	feb79ae3          	bne	a5,a1,80000334 <memmove+0x18>

  return dst;
}
    80000344:	60a2                	ld	ra,8(sp)
    80000346:	6402                	ld	s0,0(sp)
    80000348:	0141                	addi	sp,sp,16
    8000034a:	8082                	ret
  if(s < d && s + n > d){
    8000034c:	02061693          	slli	a3,a2,0x20
    80000350:	9281                	srli	a3,a3,0x20
    80000352:	00d58733          	add	a4,a1,a3
    80000356:	fce57ae3          	bgeu	a0,a4,8000032a <memmove+0xe>
    d += n;
    8000035a:	96aa                	add	a3,a3,a0
    while(n-- > 0)
    8000035c:	fff6079b          	addiw	a5,a2,-1
    80000360:	1782                	slli	a5,a5,0x20
    80000362:	9381                	srli	a5,a5,0x20
    80000364:	fff7c793          	not	a5,a5
    80000368:	97ba                	add	a5,a5,a4
      *--d = *--s;
    8000036a:	177d                	addi	a4,a4,-1
    8000036c:	16fd                	addi	a3,a3,-1
    8000036e:	00074603          	lbu	a2,0(a4)
    80000372:	00c68023          	sb	a2,0(a3)
    while(n-- > 0)
    80000376:	fee79ae3          	bne	a5,a4,8000036a <memmove+0x4e>
    8000037a:	b7e9                	j	80000344 <memmove+0x28>

000000008000037c <memcpy>:

// memcpy exists to placate GCC.  Use memmove.
void*
memcpy(void *dst, const void *src, uint n)
{
    8000037c:	1141                	addi	sp,sp,-16
    8000037e:	e406                	sd	ra,8(sp)
    80000380:	e022                	sd	s0,0(sp)
    80000382:	0800                	addi	s0,sp,16
  return memmove(dst, src, n);
    80000384:	00000097          	auipc	ra,0x0
    80000388:	f98080e7          	jalr	-104(ra) # 8000031c <memmove>
}
    8000038c:	60a2                	ld	ra,8(sp)
    8000038e:	6402                	ld	s0,0(sp)
    80000390:	0141                	addi	sp,sp,16
    80000392:	8082                	ret

0000000080000394 <strncmp>:

int
strncmp(const char *p, const char *q, uint n)
{
    80000394:	1141                	addi	sp,sp,-16
    80000396:	e406                	sd	ra,8(sp)
    80000398:	e022                	sd	s0,0(sp)
    8000039a:	0800                	addi	s0,sp,16
  while(n > 0 && *p && *p == *q)
    8000039c:	ce11                	beqz	a2,800003b8 <strncmp+0x24>
    8000039e:	00054783          	lbu	a5,0(a0)
    800003a2:	cf89                	beqz	a5,800003bc <strncmp+0x28>
    800003a4:	0005c703          	lbu	a4,0(a1)
    800003a8:	00f71a63          	bne	a4,a5,800003bc <strncmp+0x28>
    n--, p++, q++;
    800003ac:	367d                	addiw	a2,a2,-1
    800003ae:	0505                	addi	a0,a0,1
    800003b0:	0585                	addi	a1,a1,1
  while(n > 0 && *p && *p == *q)
    800003b2:	f675                	bnez	a2,8000039e <strncmp+0xa>
  if(n == 0)
    return 0;
    800003b4:	4501                	li	a0,0
    800003b6:	a801                	j	800003c6 <strncmp+0x32>
    800003b8:	4501                	li	a0,0
    800003ba:	a031                	j	800003c6 <strncmp+0x32>
  return (uchar)*p - (uchar)*q;
    800003bc:	00054503          	lbu	a0,0(a0)
    800003c0:	0005c783          	lbu	a5,0(a1)
    800003c4:	9d1d                	subw	a0,a0,a5
}
    800003c6:	60a2                	ld	ra,8(sp)
    800003c8:	6402                	ld	s0,0(sp)
    800003ca:	0141                	addi	sp,sp,16
    800003cc:	8082                	ret

00000000800003ce <strncpy>:

char*
strncpy(char *s, const char *t, int n)
{
    800003ce:	1141                	addi	sp,sp,-16
    800003d0:	e406                	sd	ra,8(sp)
    800003d2:	e022                	sd	s0,0(sp)
    800003d4:	0800                	addi	s0,sp,16
  char *os;

  os = s;
  while(n-- > 0 && (*s++ = *t++) != 0)
    800003d6:	87aa                	mv	a5,a0
    800003d8:	86b2                	mv	a3,a2
    800003da:	367d                	addiw	a2,a2,-1
    800003dc:	02d05563          	blez	a3,80000406 <strncpy+0x38>
    800003e0:	0785                	addi	a5,a5,1
    800003e2:	0005c703          	lbu	a4,0(a1)
    800003e6:	fee78fa3          	sb	a4,-1(a5)
    800003ea:	0585                	addi	a1,a1,1
    800003ec:	f775                	bnez	a4,800003d8 <strncpy+0xa>
    ;
  while(n-- > 0)
    800003ee:	873e                	mv	a4,a5
    800003f0:	00c05b63          	blez	a2,80000406 <strncpy+0x38>
    800003f4:	9fb5                	addw	a5,a5,a3
    800003f6:	37fd                	addiw	a5,a5,-1
    *s++ = 0;
    800003f8:	0705                	addi	a4,a4,1
    800003fa:	fe070fa3          	sb	zero,-1(a4)
  while(n-- > 0)
    800003fe:	40e786bb          	subw	a3,a5,a4
    80000402:	fed04be3          	bgtz	a3,800003f8 <strncpy+0x2a>
  return os;
}
    80000406:	60a2                	ld	ra,8(sp)
    80000408:	6402                	ld	s0,0(sp)
    8000040a:	0141                	addi	sp,sp,16
    8000040c:	8082                	ret

000000008000040e <safestrcpy>:

// Like strncpy but guaranteed to NUL-terminate.
char*
safestrcpy(char *s, const char *t, int n)
{
    8000040e:	1141                	addi	sp,sp,-16
    80000410:	e406                	sd	ra,8(sp)
    80000412:	e022                	sd	s0,0(sp)
    80000414:	0800                	addi	s0,sp,16
  char *os;

  os = s;
  if(n <= 0)
    80000416:	02c05363          	blez	a2,8000043c <safestrcpy+0x2e>
    8000041a:	fff6069b          	addiw	a3,a2,-1
    8000041e:	1682                	slli	a3,a3,0x20
    80000420:	9281                	srli	a3,a3,0x20
    80000422:	96ae                	add	a3,a3,a1
    80000424:	87aa                	mv	a5,a0
    return os;
  while(--n > 0 && (*s++ = *t++) != 0)
    80000426:	00d58963          	beq	a1,a3,80000438 <safestrcpy+0x2a>
    8000042a:	0585                	addi	a1,a1,1
    8000042c:	0785                	addi	a5,a5,1
    8000042e:	fff5c703          	lbu	a4,-1(a1)
    80000432:	fee78fa3          	sb	a4,-1(a5)
    80000436:	fb65                	bnez	a4,80000426 <safestrcpy+0x18>
    ;
  *s = 0;
    80000438:	00078023          	sb	zero,0(a5)
  return os;
}
    8000043c:	60a2                	ld	ra,8(sp)
    8000043e:	6402                	ld	s0,0(sp)
    80000440:	0141                	addi	sp,sp,16
    80000442:	8082                	ret

0000000080000444 <strlen>:

int
strlen(const char *s)
{
    80000444:	1141                	addi	sp,sp,-16
    80000446:	e406                	sd	ra,8(sp)
    80000448:	e022                	sd	s0,0(sp)
    8000044a:	0800                	addi	s0,sp,16
  int n;

  for(n = 0; s[n]; n++)
    8000044c:	00054783          	lbu	a5,0(a0)
    80000450:	cf99                	beqz	a5,8000046e <strlen+0x2a>
    80000452:	0505                	addi	a0,a0,1
    80000454:	87aa                	mv	a5,a0
    80000456:	86be                	mv	a3,a5
    80000458:	0785                	addi	a5,a5,1
    8000045a:	fff7c703          	lbu	a4,-1(a5)
    8000045e:	ff65                	bnez	a4,80000456 <strlen+0x12>
    80000460:	40a6853b          	subw	a0,a3,a0
    80000464:	2505                	addiw	a0,a0,1
    ;
  return n;
}
    80000466:	60a2                	ld	ra,8(sp)
    80000468:	6402                	ld	s0,0(sp)
    8000046a:	0141                	addi	sp,sp,16
    8000046c:	8082                	ret
  for(n = 0; s[n]; n++)
    8000046e:	4501                	li	a0,0
    80000470:	bfdd                	j	80000466 <strlen+0x22>

0000000080000472 <main>:
volatile static int started = 0;

// start() jumps here in supervisor mode on all CPUs.
void
main()
{
    80000472:	1141                	addi	sp,sp,-16
    80000474:	e406                	sd	ra,8(sp)
    80000476:	e022                	sd	s0,0(sp)
    80000478:	0800                	addi	s0,sp,16
  if(cpuid() == 0){
    8000047a:	00001097          	auipc	ra,0x1
    8000047e:	be8080e7          	jalr	-1048(ra) # 80001062 <cpuid>
    virtio_disk_init(); // emulated hard disk
    userinit();      // first user process
    __sync_synchronize();
    started = 1;
  } else {
    while(started == 0)
    80000482:	00009717          	auipc	a4,0x9
    80000486:	b7e70713          	addi	a4,a4,-1154 # 80009000 <started>
  if(cpuid() == 0){
    8000048a:	c139                	beqz	a0,800004d0 <main+0x5e>
    while(started == 0)
    8000048c:	431c                	lw	a5,0(a4)
    8000048e:	2781                	sext.w	a5,a5
    80000490:	dff5                	beqz	a5,8000048c <main+0x1a>
      ;
    __sync_synchronize();
    80000492:	0330000f          	fence	rw,rw
    printf("hart %d starting\n", cpuid());
    80000496:	00001097          	auipc	ra,0x1
    8000049a:	bcc080e7          	jalr	-1076(ra) # 80001062 <cpuid>
    8000049e:	85aa                	mv	a1,a0
    800004a0:	00008517          	auipc	a0,0x8
    800004a4:	ba850513          	addi	a0,a0,-1112 # 80008048 <etext+0x48>
    800004a8:	00006097          	auipc	ra,0x6
    800004ac:	ab4080e7          	jalr	-1356(ra) # 80005f5c <printf>
    kvminithart();    // turn on paging
    800004b0:	00000097          	auipc	ra,0x0
    800004b4:	0d8080e7          	jalr	216(ra) # 80000588 <kvminithart>
    trapinithart();   // install kernel trap vector
    800004b8:	00002097          	auipc	ra,0x2
    800004bc:	830080e7          	jalr	-2000(ra) # 80001ce8 <trapinithart>
    plicinithart();   // ask PLIC for device interrupts
    800004c0:	00005097          	auipc	ra,0x5
    800004c4:	f54080e7          	jalr	-172(ra) # 80005414 <plicinithart>
  }

  scheduler();        
    800004c8:	00001097          	auipc	ra,0x1
    800004cc:	0e2080e7          	jalr	226(ra) # 800015aa <scheduler>
    consoleinit();
    800004d0:	00006097          	auipc	ra,0x6
    800004d4:	964080e7          	jalr	-1692(ra) # 80005e34 <consoleinit>
    printfinit();
    800004d8:	00006097          	auipc	ra,0x6
    800004dc:	c8e080e7          	jalr	-882(ra) # 80006166 <printfinit>
    printf("\n");
    800004e0:	00008517          	auipc	a0,0x8
    800004e4:	b4850513          	addi	a0,a0,-1208 # 80008028 <etext+0x28>
    800004e8:	00006097          	auipc	ra,0x6
    800004ec:	a74080e7          	jalr	-1420(ra) # 80005f5c <printf>
    printf("xv6 kernel is booting\n");
    800004f0:	00008517          	auipc	a0,0x8
    800004f4:	b4050513          	addi	a0,a0,-1216 # 80008030 <etext+0x30>
    800004f8:	00006097          	auipc	ra,0x6
    800004fc:	a64080e7          	jalr	-1436(ra) # 80005f5c <printf>
    printf("\n");
    80000500:	00008517          	auipc	a0,0x8
    80000504:	b2850513          	addi	a0,a0,-1240 # 80008028 <etext+0x28>
    80000508:	00006097          	auipc	ra,0x6
    8000050c:	a54080e7          	jalr	-1452(ra) # 80005f5c <printf>
    kinit();         // physical page allocator
    80000510:	00000097          	auipc	ra,0x0
    80000514:	cba080e7          	jalr	-838(ra) # 800001ca <kinit>
    kvminit();       // create kernel page table
    80000518:	00000097          	auipc	ra,0x0
    8000051c:	326080e7          	jalr	806(ra) # 8000083e <kvminit>
    kvminithart();   // turn on paging
    80000520:	00000097          	auipc	ra,0x0
    80000524:	068080e7          	jalr	104(ra) # 80000588 <kvminithart>
    procinit();      // process table
    80000528:	00001097          	auipc	ra,0x1
    8000052c:	a82080e7          	jalr	-1406(ra) # 80000faa <procinit>
    trapinit();      // trap vectors
    80000530:	00001097          	auipc	ra,0x1
    80000534:	790080e7          	jalr	1936(ra) # 80001cc0 <trapinit>
    trapinithart();  // install kernel trap vector
    80000538:	00001097          	auipc	ra,0x1
    8000053c:	7b0080e7          	jalr	1968(ra) # 80001ce8 <trapinithart>
    plicinit();      // set up interrupt controller
    80000540:	00005097          	auipc	ra,0x5
    80000544:	eba080e7          	jalr	-326(ra) # 800053fa <plicinit>
    plicinithart();  // ask PLIC for device interrupts
    80000548:	00005097          	auipc	ra,0x5
    8000054c:	ecc080e7          	jalr	-308(ra) # 80005414 <plicinithart>
    binit();         // buffer cache
    80000550:	00002097          	auipc	ra,0x2
    80000554:	fa0080e7          	jalr	-96(ra) # 800024f0 <binit>
    iinit();         // inode table
    80000558:	00002097          	auipc	ra,0x2
    8000055c:	60e080e7          	jalr	1550(ra) # 80002b66 <iinit>
    fileinit();      // file table
    80000560:	00003097          	auipc	ra,0x3
    80000564:	5d8080e7          	jalr	1496(ra) # 80003b38 <fileinit>
    virtio_disk_init(); // emulated hard disk
    80000568:	00005097          	auipc	ra,0x5
    8000056c:	fcc080e7          	jalr	-52(ra) # 80005534 <virtio_disk_init>
    userinit();      // first user process
    80000570:	00001097          	auipc	ra,0x1
    80000574:	dfe080e7          	jalr	-514(ra) # 8000136e <userinit>
    __sync_synchronize();
    80000578:	0330000f          	fence	rw,rw
    started = 1;
    8000057c:	4785                	li	a5,1
    8000057e:	00009717          	auipc	a4,0x9
    80000582:	a8f72123          	sw	a5,-1406(a4) # 80009000 <started>
    80000586:	b789                	j	800004c8 <main+0x56>

0000000080000588 <kvminithart>:
}

// Switch h/w page table register to the kernel's page table,
// and enable paging.
void kvminithart()
{
    80000588:	1141                	addi	sp,sp,-16
    8000058a:	e406                	sd	ra,8(sp)
    8000058c:	e022                	sd	s0,0(sp)
    8000058e:	0800                	addi	s0,sp,16
  w_satp(MAKE_SATP(kernel_pagetable));
    80000590:	00009797          	auipc	a5,0x9
    80000594:	a787b783          	ld	a5,-1416(a5) # 80009008 <kernel_pagetable>
    80000598:	83b1                	srli	a5,a5,0xc
    8000059a:	577d                	li	a4,-1
    8000059c:	177e                	slli	a4,a4,0x3f
    8000059e:	8fd9                	or	a5,a5,a4
// supervisor address translation and protection;
// holds the address of the page table.
static inline void 
w_satp(uint64 x)
{
  asm volatile("csrw satp, %0" : : "r" (x));
    800005a0:	18079073          	csrw	satp,a5
// flush the TLB.
static inline void
sfence_vma()
{
  // the zero, zero means flush all TLB entries.
  asm volatile("sfence.vma zero, zero");
    800005a4:	12000073          	sfence.vma
  sfence_vma();
}
    800005a8:	60a2                	ld	ra,8(sp)
    800005aa:	6402                	ld	s0,0(sp)
    800005ac:	0141                	addi	sp,sp,16
    800005ae:	8082                	ret

00000000800005b0 <walk>:
//   21..29 -- 9 bits of level-1 index.
//   12..20 -- 9 bits of level-0 index.
//    0..11 -- 12 bits of byte offset within the page.
pte_t *
walk(pagetable_t pagetable, uint64 va, int alloc)
{
    800005b0:	7139                	addi	sp,sp,-64
    800005b2:	fc06                	sd	ra,56(sp)
    800005b4:	f822                	sd	s0,48(sp)
    800005b6:	f426                	sd	s1,40(sp)
    800005b8:	f04a                	sd	s2,32(sp)
    800005ba:	ec4e                	sd	s3,24(sp)
    800005bc:	e852                	sd	s4,16(sp)
    800005be:	e456                	sd	s5,8(sp)
    800005c0:	e05a                	sd	s6,0(sp)
    800005c2:	0080                	addi	s0,sp,64
    800005c4:	84aa                	mv	s1,a0
    800005c6:	89ae                	mv	s3,a1
    800005c8:	8ab2                	mv	s5,a2
  if (va >= MAXVA)
    800005ca:	57fd                	li	a5,-1
    800005cc:	83e9                	srli	a5,a5,0x1a
    800005ce:	4a79                	li	s4,30
    panic("walk");

  for (int level = 2; level > 0; level--)
    800005d0:	4b31                	li	s6,12
  if (va >= MAXVA)
    800005d2:	04b7e263          	bltu	a5,a1,80000616 <walk+0x66>
  {
    pte_t *pte = &pagetable[PX(level, va)];
    800005d6:	0149d933          	srl	s2,s3,s4
    800005da:	1ff97913          	andi	s2,s2,511
    800005de:	090e                	slli	s2,s2,0x3
    800005e0:	9926                	add	s2,s2,s1
    if (*pte & PTE_V)
    800005e2:	00093483          	ld	s1,0(s2)
    800005e6:	0014f793          	andi	a5,s1,1
    800005ea:	cf95                	beqz	a5,80000626 <walk+0x76>
    {
      pagetable = (pagetable_t)PTE2PA(*pte);
    800005ec:	80a9                	srli	s1,s1,0xa
    800005ee:	04b2                	slli	s1,s1,0xc
  for (int level = 2; level > 0; level--)
    800005f0:	3a5d                	addiw	s4,s4,-9
    800005f2:	ff6a12e3          	bne	s4,s6,800005d6 <walk+0x26>
        return 0;
      memset(pagetable, 0, PGSIZE);
      *pte = PA2PTE(pagetable) | PTE_V;
    }
  }
  return &pagetable[PX(0, va)];
    800005f6:	00c9d513          	srli	a0,s3,0xc
    800005fa:	1ff57513          	andi	a0,a0,511
    800005fe:	050e                	slli	a0,a0,0x3
    80000600:	9526                	add	a0,a0,s1
}
    80000602:	70e2                	ld	ra,56(sp)
    80000604:	7442                	ld	s0,48(sp)
    80000606:	74a2                	ld	s1,40(sp)
    80000608:	7902                	ld	s2,32(sp)
    8000060a:	69e2                	ld	s3,24(sp)
    8000060c:	6a42                	ld	s4,16(sp)
    8000060e:	6aa2                	ld	s5,8(sp)
    80000610:	6b02                	ld	s6,0(sp)
    80000612:	6121                	addi	sp,sp,64
    80000614:	8082                	ret
    panic("walk");
    80000616:	00008517          	auipc	a0,0x8
    8000061a:	a4a50513          	addi	a0,a0,-1462 # 80008060 <etext+0x60>
    8000061e:	00006097          	auipc	ra,0x6
    80000622:	8f4080e7          	jalr	-1804(ra) # 80005f12 <panic>
      if (!alloc || (pagetable = (pde_t *)kalloc()) == 0)
    80000626:	020a8663          	beqz	s5,80000652 <walk+0xa2>
    8000062a:	00000097          	auipc	ra,0x0
    8000062e:	bf4080e7          	jalr	-1036(ra) # 8000021e <kalloc>
    80000632:	84aa                	mv	s1,a0
    80000634:	d579                	beqz	a0,80000602 <walk+0x52>
      memset(pagetable, 0, PGSIZE);
    80000636:	6605                	lui	a2,0x1
    80000638:	4581                	li	a1,0
    8000063a:	00000097          	auipc	ra,0x0
    8000063e:	c7e080e7          	jalr	-898(ra) # 800002b8 <memset>
      *pte = PA2PTE(pagetable) | PTE_V;
    80000642:	00c4d793          	srli	a5,s1,0xc
    80000646:	07aa                	slli	a5,a5,0xa
    80000648:	0017e793          	ori	a5,a5,1
    8000064c:	00f93023          	sd	a5,0(s2)
    80000650:	b745                	j	800005f0 <walk+0x40>
        return 0;
    80000652:	4501                	li	a0,0
    80000654:	b77d                	j	80000602 <walk+0x52>

0000000080000656 <walkaddr>:
walkaddr(pagetable_t pagetable, uint64 va)
{
  pte_t *pte;
  uint64 pa;

  if (va >= MAXVA)
    80000656:	57fd                	li	a5,-1
    80000658:	83e9                	srli	a5,a5,0x1a
    8000065a:	00b7f463          	bgeu	a5,a1,80000662 <walkaddr+0xc>
    return 0;
    8000065e:	4501                	li	a0,0
    return 0;
  if ((*pte & PTE_U) == 0)
    return 0;
  pa = PTE2PA(*pte);
  return pa;
}
    80000660:	8082                	ret
{
    80000662:	1141                	addi	sp,sp,-16
    80000664:	e406                	sd	ra,8(sp)
    80000666:	e022                	sd	s0,0(sp)
    80000668:	0800                	addi	s0,sp,16
  pte = walk(pagetable, va, 0);
    8000066a:	4601                	li	a2,0
    8000066c:	00000097          	auipc	ra,0x0
    80000670:	f44080e7          	jalr	-188(ra) # 800005b0 <walk>
  if (pte == 0)
    80000674:	c105                	beqz	a0,80000694 <walkaddr+0x3e>
  if ((*pte & PTE_V) == 0)
    80000676:	611c                	ld	a5,0(a0)
  if ((*pte & PTE_U) == 0)
    80000678:	0117f693          	andi	a3,a5,17
    8000067c:	4745                	li	a4,17
    return 0;
    8000067e:	4501                	li	a0,0
  if ((*pte & PTE_U) == 0)
    80000680:	00e68663          	beq	a3,a4,8000068c <walkaddr+0x36>
}
    80000684:	60a2                	ld	ra,8(sp)
    80000686:	6402                	ld	s0,0(sp)
    80000688:	0141                	addi	sp,sp,16
    8000068a:	8082                	ret
  pa = PTE2PA(*pte);
    8000068c:	83a9                	srli	a5,a5,0xa
    8000068e:	00c79513          	slli	a0,a5,0xc
  return pa;
    80000692:	bfcd                	j	80000684 <walkaddr+0x2e>
    return 0;
    80000694:	4501                	li	a0,0
    80000696:	b7fd                	j	80000684 <walkaddr+0x2e>

0000000080000698 <mappages>:
// Create PTEs for virtual addresses starting at va that refer to
// physical addresses starting at pa. va and size might not
// be page-aligned. Returns 0 on success, -1 if walk() couldn't
// allocate a needed page-table page.
int mappages(pagetable_t pagetable, uint64 va, uint64 size, uint64 pa, int perm)
{
    80000698:	715d                	addi	sp,sp,-80
    8000069a:	e486                	sd	ra,72(sp)
    8000069c:	e0a2                	sd	s0,64(sp)
    8000069e:	fc26                	sd	s1,56(sp)
    800006a0:	f84a                	sd	s2,48(sp)
    800006a2:	f44e                	sd	s3,40(sp)
    800006a4:	f052                	sd	s4,32(sp)
    800006a6:	ec56                	sd	s5,24(sp)
    800006a8:	e85a                	sd	s6,16(sp)
    800006aa:	e45e                	sd	s7,8(sp)
    800006ac:	e062                	sd	s8,0(sp)
    800006ae:	0880                	addi	s0,sp,80
  uint64 a, last;
  pte_t *pte;

  if (size == 0)
    800006b0:	ca21                	beqz	a2,80000700 <mappages+0x68>
    800006b2:	8aaa                	mv	s5,a0
    800006b4:	8b3a                	mv	s6,a4
    panic("mappages: size");

  a = PGROUNDDOWN(va);
    800006b6:	777d                	lui	a4,0xfffff
    800006b8:	00e5f7b3          	and	a5,a1,a4
  last = PGROUNDDOWN(va + size - 1);
    800006bc:	fff58993          	addi	s3,a1,-1
    800006c0:	99b2                	add	s3,s3,a2
    800006c2:	00e9f9b3          	and	s3,s3,a4
  a = PGROUNDDOWN(va);
    800006c6:	893e                	mv	s2,a5
    800006c8:	40f68a33          	sub	s4,a3,a5
  for (;;)
  {
    if ((pte = walk(pagetable, a, 1)) == 0)
    800006cc:	4b85                	li	s7,1
    if (*pte & PTE_V)
      panic("mappages: remap");
    *pte = PA2PTE(pa) | perm | PTE_V;
    if (a == last)
      break;
    a += PGSIZE;
    800006ce:	6c05                	lui	s8,0x1
    800006d0:	014904b3          	add	s1,s2,s4
    if ((pte = walk(pagetable, a, 1)) == 0)
    800006d4:	865e                	mv	a2,s7
    800006d6:	85ca                	mv	a1,s2
    800006d8:	8556                	mv	a0,s5
    800006da:	00000097          	auipc	ra,0x0
    800006de:	ed6080e7          	jalr	-298(ra) # 800005b0 <walk>
    800006e2:	cd1d                	beqz	a0,80000720 <mappages+0x88>
    if (*pte & PTE_V)
    800006e4:	611c                	ld	a5,0(a0)
    800006e6:	8b85                	andi	a5,a5,1
    800006e8:	e785                	bnez	a5,80000710 <mappages+0x78>
    *pte = PA2PTE(pa) | perm | PTE_V;
    800006ea:	80b1                	srli	s1,s1,0xc
    800006ec:	04aa                	slli	s1,s1,0xa
    800006ee:	0164e4b3          	or	s1,s1,s6
    800006f2:	0014e493          	ori	s1,s1,1
    800006f6:	e104                	sd	s1,0(a0)
    if (a == last)
    800006f8:	05390163          	beq	s2,s3,8000073a <mappages+0xa2>
    a += PGSIZE;
    800006fc:	9962                	add	s2,s2,s8
    if ((pte = walk(pagetable, a, 1)) == 0)
    800006fe:	bfc9                	j	800006d0 <mappages+0x38>
    panic("mappages: size");
    80000700:	00008517          	auipc	a0,0x8
    80000704:	96850513          	addi	a0,a0,-1688 # 80008068 <etext+0x68>
    80000708:	00006097          	auipc	ra,0x6
    8000070c:	80a080e7          	jalr	-2038(ra) # 80005f12 <panic>
      panic("mappages: remap");
    80000710:	00008517          	auipc	a0,0x8
    80000714:	96850513          	addi	a0,a0,-1688 # 80008078 <etext+0x78>
    80000718:	00005097          	auipc	ra,0x5
    8000071c:	7fa080e7          	jalr	2042(ra) # 80005f12 <panic>
      return -1;
    80000720:	557d                	li	a0,-1
    pa += PGSIZE;
  }
  return 0;
}
    80000722:	60a6                	ld	ra,72(sp)
    80000724:	6406                	ld	s0,64(sp)
    80000726:	74e2                	ld	s1,56(sp)
    80000728:	7942                	ld	s2,48(sp)
    8000072a:	79a2                	ld	s3,40(sp)
    8000072c:	7a02                	ld	s4,32(sp)
    8000072e:	6ae2                	ld	s5,24(sp)
    80000730:	6b42                	ld	s6,16(sp)
    80000732:	6ba2                	ld	s7,8(sp)
    80000734:	6c02                	ld	s8,0(sp)
    80000736:	6161                	addi	sp,sp,80
    80000738:	8082                	ret
  return 0;
    8000073a:	4501                	li	a0,0
    8000073c:	b7dd                	j	80000722 <mappages+0x8a>

000000008000073e <kvmmap>:
{
    8000073e:	1141                	addi	sp,sp,-16
    80000740:	e406                	sd	ra,8(sp)
    80000742:	e022                	sd	s0,0(sp)
    80000744:	0800                	addi	s0,sp,16
    80000746:	87b6                	mv	a5,a3
  if (mappages(kpgtbl, va, sz, pa, perm) != 0)
    80000748:	86b2                	mv	a3,a2
    8000074a:	863e                	mv	a2,a5
    8000074c:	00000097          	auipc	ra,0x0
    80000750:	f4c080e7          	jalr	-180(ra) # 80000698 <mappages>
    80000754:	e509                	bnez	a0,8000075e <kvmmap+0x20>
}
    80000756:	60a2                	ld	ra,8(sp)
    80000758:	6402                	ld	s0,0(sp)
    8000075a:	0141                	addi	sp,sp,16
    8000075c:	8082                	ret
    panic("kvmmap");
    8000075e:	00008517          	auipc	a0,0x8
    80000762:	92a50513          	addi	a0,a0,-1750 # 80008088 <etext+0x88>
    80000766:	00005097          	auipc	ra,0x5
    8000076a:	7ac080e7          	jalr	1964(ra) # 80005f12 <panic>

000000008000076e <kvmmake>:
{
    8000076e:	1101                	addi	sp,sp,-32
    80000770:	ec06                	sd	ra,24(sp)
    80000772:	e822                	sd	s0,16(sp)
    80000774:	e426                	sd	s1,8(sp)
    80000776:	e04a                	sd	s2,0(sp)
    80000778:	1000                	addi	s0,sp,32
  kpgtbl = (pagetable_t)kalloc();
    8000077a:	00000097          	auipc	ra,0x0
    8000077e:	aa4080e7          	jalr	-1372(ra) # 8000021e <kalloc>
    80000782:	84aa                	mv	s1,a0
  memset(kpgtbl, 0, PGSIZE);
    80000784:	6605                	lui	a2,0x1
    80000786:	4581                	li	a1,0
    80000788:	00000097          	auipc	ra,0x0
    8000078c:	b30080e7          	jalr	-1232(ra) # 800002b8 <memset>
  kvmmap(kpgtbl, UART0, UART0, PGSIZE, PTE_R | PTE_W);
    80000790:	4719                	li	a4,6
    80000792:	6685                	lui	a3,0x1
    80000794:	10000637          	lui	a2,0x10000
    80000798:	85b2                	mv	a1,a2
    8000079a:	8526                	mv	a0,s1
    8000079c:	00000097          	auipc	ra,0x0
    800007a0:	fa2080e7          	jalr	-94(ra) # 8000073e <kvmmap>
  kvmmap(kpgtbl, VIRTIO0, VIRTIO0, PGSIZE, PTE_R | PTE_W);
    800007a4:	4719                	li	a4,6
    800007a6:	6685                	lui	a3,0x1
    800007a8:	10001637          	lui	a2,0x10001
    800007ac:	85b2                	mv	a1,a2
    800007ae:	8526                	mv	a0,s1
    800007b0:	00000097          	auipc	ra,0x0
    800007b4:	f8e080e7          	jalr	-114(ra) # 8000073e <kvmmap>
  kvmmap(kpgtbl, PLIC, PLIC, 0x400000, PTE_R | PTE_W);
    800007b8:	4719                	li	a4,6
    800007ba:	004006b7          	lui	a3,0x400
    800007be:	0c000637          	lui	a2,0xc000
    800007c2:	85b2                	mv	a1,a2
    800007c4:	8526                	mv	a0,s1
    800007c6:	00000097          	auipc	ra,0x0
    800007ca:	f78080e7          	jalr	-136(ra) # 8000073e <kvmmap>
  kvmmap(kpgtbl, KERNBASE, KERNBASE, (uint64)etext - KERNBASE, PTE_R | PTE_X);
    800007ce:	00008917          	auipc	s2,0x8
    800007d2:	83290913          	addi	s2,s2,-1998 # 80008000 <etext>
    800007d6:	4729                	li	a4,10
    800007d8:	80008697          	auipc	a3,0x80008
    800007dc:	82868693          	addi	a3,a3,-2008 # 8000 <_entry-0x7fff8000>
    800007e0:	4605                	li	a2,1
    800007e2:	067e                	slli	a2,a2,0x1f
    800007e4:	85b2                	mv	a1,a2
    800007e6:	8526                	mv	a0,s1
    800007e8:	00000097          	auipc	ra,0x0
    800007ec:	f56080e7          	jalr	-170(ra) # 8000073e <kvmmap>
  kvmmap(kpgtbl, (uint64)etext, (uint64)etext, PHYSTOP - (uint64)etext, PTE_R | PTE_W);
    800007f0:	4719                	li	a4,6
    800007f2:	46c5                	li	a3,17
    800007f4:	06ee                	slli	a3,a3,0x1b
    800007f6:	412686b3          	sub	a3,a3,s2
    800007fa:	864a                	mv	a2,s2
    800007fc:	85ca                	mv	a1,s2
    800007fe:	8526                	mv	a0,s1
    80000800:	00000097          	auipc	ra,0x0
    80000804:	f3e080e7          	jalr	-194(ra) # 8000073e <kvmmap>
  kvmmap(kpgtbl, TRAMPOLINE, (uint64)trampoline, PGSIZE, PTE_R | PTE_X);
    80000808:	4729                	li	a4,10
    8000080a:	6685                	lui	a3,0x1
    8000080c:	00006617          	auipc	a2,0x6
    80000810:	7f460613          	addi	a2,a2,2036 # 80007000 <_trampoline>
    80000814:	040005b7          	lui	a1,0x4000
    80000818:	15fd                	addi	a1,a1,-1 # 3ffffff <_entry-0x7c000001>
    8000081a:	05b2                	slli	a1,a1,0xc
    8000081c:	8526                	mv	a0,s1
    8000081e:	00000097          	auipc	ra,0x0
    80000822:	f20080e7          	jalr	-224(ra) # 8000073e <kvmmap>
  proc_mapstacks(kpgtbl);
    80000826:	8526                	mv	a0,s1
    80000828:	00000097          	auipc	ra,0x0
    8000082c:	6d8080e7          	jalr	1752(ra) # 80000f00 <proc_mapstacks>
}
    80000830:	8526                	mv	a0,s1
    80000832:	60e2                	ld	ra,24(sp)
    80000834:	6442                	ld	s0,16(sp)
    80000836:	64a2                	ld	s1,8(sp)
    80000838:	6902                	ld	s2,0(sp)
    8000083a:	6105                	addi	sp,sp,32
    8000083c:	8082                	ret

000000008000083e <kvminit>:
{
    8000083e:	1141                	addi	sp,sp,-16
    80000840:	e406                	sd	ra,8(sp)
    80000842:	e022                	sd	s0,0(sp)
    80000844:	0800                	addi	s0,sp,16
  kernel_pagetable = kvmmake();
    80000846:	00000097          	auipc	ra,0x0
    8000084a:	f28080e7          	jalr	-216(ra) # 8000076e <kvmmake>
    8000084e:	00008797          	auipc	a5,0x8
    80000852:	7aa7bd23          	sd	a0,1978(a5) # 80009008 <kernel_pagetable>
}
    80000856:	60a2                	ld	ra,8(sp)
    80000858:	6402                	ld	s0,0(sp)
    8000085a:	0141                	addi	sp,sp,16
    8000085c:	8082                	ret

000000008000085e <uvmunmap>:

// Remove npages of mappings starting from va. va must be
// page-aligned. The mappings must exist.
// Optionally free the physical memory.
void uvmunmap(pagetable_t pagetable, uint64 va, uint64 npages, int do_free)
{
    8000085e:	715d                	addi	sp,sp,-80
    80000860:	e486                	sd	ra,72(sp)
    80000862:	e0a2                	sd	s0,64(sp)
    80000864:	0880                	addi	s0,sp,80
  uint64 a;
  pte_t *pte;

  if ((va % PGSIZE) != 0)
    80000866:	03459793          	slli	a5,a1,0x34
    8000086a:	e39d                	bnez	a5,80000890 <uvmunmap+0x32>
    8000086c:	f84a                	sd	s2,48(sp)
    8000086e:	f44e                	sd	s3,40(sp)
    80000870:	f052                	sd	s4,32(sp)
    80000872:	ec56                	sd	s5,24(sp)
    80000874:	e85a                	sd	s6,16(sp)
    80000876:	e45e                	sd	s7,8(sp)
    80000878:	8a2a                	mv	s4,a0
    8000087a:	892e                	mv	s2,a1
    8000087c:	8ab6                	mv	s5,a3
    panic("uvmunmap: not aligned");

  for (a = va; a < va + npages * PGSIZE; a += PGSIZE)
    8000087e:	0632                	slli	a2,a2,0xc
    80000880:	00b609b3          	add	s3,a2,a1
  {
    if ((pte = walk(pagetable, a, 0)) == 0)
      panic("uvmunmap: walk");
    if ((*pte & PTE_V) == 0)
      panic("uvmunmap: not mapped");
    if (PTE_FLAGS(*pte) == PTE_V)
    80000884:	4b85                	li	s7,1
  for (a = va; a < va + npages * PGSIZE; a += PGSIZE)
    80000886:	6b05                	lui	s6,0x1
    80000888:	0935fb63          	bgeu	a1,s3,8000091e <uvmunmap+0xc0>
    8000088c:	fc26                	sd	s1,56(sp)
    8000088e:	a8a9                	j	800008e8 <uvmunmap+0x8a>
    80000890:	fc26                	sd	s1,56(sp)
    80000892:	f84a                	sd	s2,48(sp)
    80000894:	f44e                	sd	s3,40(sp)
    80000896:	f052                	sd	s4,32(sp)
    80000898:	ec56                	sd	s5,24(sp)
    8000089a:	e85a                	sd	s6,16(sp)
    8000089c:	e45e                	sd	s7,8(sp)
    panic("uvmunmap: not aligned");
    8000089e:	00007517          	auipc	a0,0x7
    800008a2:	7f250513          	addi	a0,a0,2034 # 80008090 <etext+0x90>
    800008a6:	00005097          	auipc	ra,0x5
    800008aa:	66c080e7          	jalr	1644(ra) # 80005f12 <panic>
      panic("uvmunmap: walk");
    800008ae:	00007517          	auipc	a0,0x7
    800008b2:	7fa50513          	addi	a0,a0,2042 # 800080a8 <etext+0xa8>
    800008b6:	00005097          	auipc	ra,0x5
    800008ba:	65c080e7          	jalr	1628(ra) # 80005f12 <panic>
      panic("uvmunmap: not mapped");
    800008be:	00007517          	auipc	a0,0x7
    800008c2:	7fa50513          	addi	a0,a0,2042 # 800080b8 <etext+0xb8>
    800008c6:	00005097          	auipc	ra,0x5
    800008ca:	64c080e7          	jalr	1612(ra) # 80005f12 <panic>
      panic("uvmunmap: not a leaf");
    800008ce:	00008517          	auipc	a0,0x8
    800008d2:	80250513          	addi	a0,a0,-2046 # 800080d0 <etext+0xd0>
    800008d6:	00005097          	auipc	ra,0x5
    800008da:	63c080e7          	jalr	1596(ra) # 80005f12 <panic>
    if (do_free)
    {
      uint64 pa = PTE2PA(*pte);
      kfree((void *)pa);
    }
    *pte = 0;
    800008de:	0004b023          	sd	zero,0(s1)
  for (a = va; a < va + npages * PGSIZE; a += PGSIZE)
    800008e2:	995a                	add	s2,s2,s6
    800008e4:	03397c63          	bgeu	s2,s3,8000091c <uvmunmap+0xbe>
    if ((pte = walk(pagetable, a, 0)) == 0)
    800008e8:	4601                	li	a2,0
    800008ea:	85ca                	mv	a1,s2
    800008ec:	8552                	mv	a0,s4
    800008ee:	00000097          	auipc	ra,0x0
    800008f2:	cc2080e7          	jalr	-830(ra) # 800005b0 <walk>
    800008f6:	84aa                	mv	s1,a0
    800008f8:	d95d                	beqz	a0,800008ae <uvmunmap+0x50>
    if ((*pte & PTE_V) == 0)
    800008fa:	6108                	ld	a0,0(a0)
    800008fc:	00157793          	andi	a5,a0,1
    80000900:	dfdd                	beqz	a5,800008be <uvmunmap+0x60>
    if (PTE_FLAGS(*pte) == PTE_V)
    80000902:	3ff57793          	andi	a5,a0,1023
    80000906:	fd7784e3          	beq	a5,s7,800008ce <uvmunmap+0x70>
    if (do_free)
    8000090a:	fc0a8ae3          	beqz	s5,800008de <uvmunmap+0x80>
      uint64 pa = PTE2PA(*pte);
    8000090e:	8129                	srli	a0,a0,0xa
      kfree((void *)pa);
    80000910:	0532                	slli	a0,a0,0xc
    80000912:	fffff097          	auipc	ra,0xfffff
    80000916:	7a2080e7          	jalr	1954(ra) # 800000b4 <kfree>
    8000091a:	b7d1                	j	800008de <uvmunmap+0x80>
    8000091c:	74e2                	ld	s1,56(sp)
    8000091e:	7942                	ld	s2,48(sp)
    80000920:	79a2                	ld	s3,40(sp)
    80000922:	7a02                	ld	s4,32(sp)
    80000924:	6ae2                	ld	s5,24(sp)
    80000926:	6b42                	ld	s6,16(sp)
    80000928:	6ba2                	ld	s7,8(sp)
  }
}
    8000092a:	60a6                	ld	ra,72(sp)
    8000092c:	6406                	ld	s0,64(sp)
    8000092e:	6161                	addi	sp,sp,80
    80000930:	8082                	ret

0000000080000932 <uvmcreate>:

// create an empty user page table.
// returns 0 if out of memory.
pagetable_t
uvmcreate()
{
    80000932:	1101                	addi	sp,sp,-32
    80000934:	ec06                	sd	ra,24(sp)
    80000936:	e822                	sd	s0,16(sp)
    80000938:	e426                	sd	s1,8(sp)
    8000093a:	1000                	addi	s0,sp,32
  pagetable_t pagetable;
  pagetable = (pagetable_t)kalloc();
    8000093c:	00000097          	auipc	ra,0x0
    80000940:	8e2080e7          	jalr	-1822(ra) # 8000021e <kalloc>
    80000944:	84aa                	mv	s1,a0
  if (pagetable == 0)
    80000946:	c519                	beqz	a0,80000954 <uvmcreate+0x22>
    return 0;
  memset(pagetable, 0, PGSIZE);
    80000948:	6605                	lui	a2,0x1
    8000094a:	4581                	li	a1,0
    8000094c:	00000097          	auipc	ra,0x0
    80000950:	96c080e7          	jalr	-1684(ra) # 800002b8 <memset>
  return pagetable;
}
    80000954:	8526                	mv	a0,s1
    80000956:	60e2                	ld	ra,24(sp)
    80000958:	6442                	ld	s0,16(sp)
    8000095a:	64a2                	ld	s1,8(sp)
    8000095c:	6105                	addi	sp,sp,32
    8000095e:	8082                	ret

0000000080000960 <uvminit>:

// Load the user initcode into address 0 of pagetable,
// for the very first process.
// sz must be less than a page.
void uvminit(pagetable_t pagetable, uchar *src, uint sz)
{
    80000960:	7179                	addi	sp,sp,-48
    80000962:	f406                	sd	ra,40(sp)
    80000964:	f022                	sd	s0,32(sp)
    80000966:	ec26                	sd	s1,24(sp)
    80000968:	e84a                	sd	s2,16(sp)
    8000096a:	e44e                	sd	s3,8(sp)
    8000096c:	e052                	sd	s4,0(sp)
    8000096e:	1800                	addi	s0,sp,48
  char *mem;

  if (sz >= PGSIZE)
    80000970:	6785                	lui	a5,0x1
    80000972:	04f67863          	bgeu	a2,a5,800009c2 <uvminit+0x62>
    80000976:	8a2a                	mv	s4,a0
    80000978:	89ae                	mv	s3,a1
    8000097a:	84b2                	mv	s1,a2
    panic("inituvm: more than a page");
  mem = kalloc();
    8000097c:	00000097          	auipc	ra,0x0
    80000980:	8a2080e7          	jalr	-1886(ra) # 8000021e <kalloc>
    80000984:	892a                	mv	s2,a0
  memset(mem, 0, PGSIZE);
    80000986:	6605                	lui	a2,0x1
    80000988:	4581                	li	a1,0
    8000098a:	00000097          	auipc	ra,0x0
    8000098e:	92e080e7          	jalr	-1746(ra) # 800002b8 <memset>
  mappages(pagetable, 0, PGSIZE, (uint64)mem, PTE_W | PTE_R | PTE_X | PTE_U);
    80000992:	4779                	li	a4,30
    80000994:	86ca                	mv	a3,s2
    80000996:	6605                	lui	a2,0x1
    80000998:	4581                	li	a1,0
    8000099a:	8552                	mv	a0,s4
    8000099c:	00000097          	auipc	ra,0x0
    800009a0:	cfc080e7          	jalr	-772(ra) # 80000698 <mappages>
  memmove(mem, src, sz);
    800009a4:	8626                	mv	a2,s1
    800009a6:	85ce                	mv	a1,s3
    800009a8:	854a                	mv	a0,s2
    800009aa:	00000097          	auipc	ra,0x0
    800009ae:	972080e7          	jalr	-1678(ra) # 8000031c <memmove>
}
    800009b2:	70a2                	ld	ra,40(sp)
    800009b4:	7402                	ld	s0,32(sp)
    800009b6:	64e2                	ld	s1,24(sp)
    800009b8:	6942                	ld	s2,16(sp)
    800009ba:	69a2                	ld	s3,8(sp)
    800009bc:	6a02                	ld	s4,0(sp)
    800009be:	6145                	addi	sp,sp,48
    800009c0:	8082                	ret
    panic("inituvm: more than a page");
    800009c2:	00007517          	auipc	a0,0x7
    800009c6:	72650513          	addi	a0,a0,1830 # 800080e8 <etext+0xe8>
    800009ca:	00005097          	auipc	ra,0x5
    800009ce:	548080e7          	jalr	1352(ra) # 80005f12 <panic>

00000000800009d2 <uvmdealloc>:
// newsz.  oldsz and newsz need not be page-aligned, nor does newsz
// need to be less than oldsz.  oldsz can be larger than the actual
// process size.  Returns the new process size.
uint64
uvmdealloc(pagetable_t pagetable, uint64 oldsz, uint64 newsz)
{
    800009d2:	1101                	addi	sp,sp,-32
    800009d4:	ec06                	sd	ra,24(sp)
    800009d6:	e822                	sd	s0,16(sp)
    800009d8:	e426                	sd	s1,8(sp)
    800009da:	1000                	addi	s0,sp,32
  if (newsz >= oldsz)
    return oldsz;
    800009dc:	84ae                	mv	s1,a1
  if (newsz >= oldsz)
    800009de:	00b67d63          	bgeu	a2,a1,800009f8 <uvmdealloc+0x26>
    800009e2:	84b2                	mv	s1,a2

  if (PGROUNDUP(newsz) < PGROUNDUP(oldsz))
    800009e4:	6785                	lui	a5,0x1
    800009e6:	17fd                	addi	a5,a5,-1 # fff <_entry-0x7ffff001>
    800009e8:	00f60733          	add	a4,a2,a5
    800009ec:	76fd                	lui	a3,0xfffff
    800009ee:	8f75                	and	a4,a4,a3
    800009f0:	97ae                	add	a5,a5,a1
    800009f2:	8ff5                	and	a5,a5,a3
    800009f4:	00f76863          	bltu	a4,a5,80000a04 <uvmdealloc+0x32>
    int npages = (PGROUNDUP(oldsz) - PGROUNDUP(newsz)) / PGSIZE;
    uvmunmap(pagetable, PGROUNDUP(newsz), npages, 1);
  }

  return newsz;
}
    800009f8:	8526                	mv	a0,s1
    800009fa:	60e2                	ld	ra,24(sp)
    800009fc:	6442                	ld	s0,16(sp)
    800009fe:	64a2                	ld	s1,8(sp)
    80000a00:	6105                	addi	sp,sp,32
    80000a02:	8082                	ret
    int npages = (PGROUNDUP(oldsz) - PGROUNDUP(newsz)) / PGSIZE;
    80000a04:	8f99                	sub	a5,a5,a4
    80000a06:	83b1                	srli	a5,a5,0xc
    uvmunmap(pagetable, PGROUNDUP(newsz), npages, 1);
    80000a08:	4685                	li	a3,1
    80000a0a:	0007861b          	sext.w	a2,a5
    80000a0e:	85ba                	mv	a1,a4
    80000a10:	00000097          	auipc	ra,0x0
    80000a14:	e4e080e7          	jalr	-434(ra) # 8000085e <uvmunmap>
    80000a18:	b7c5                	j	800009f8 <uvmdealloc+0x26>

0000000080000a1a <uvmalloc>:
  if (newsz < oldsz)
    80000a1a:	0ab66e63          	bltu	a2,a1,80000ad6 <uvmalloc+0xbc>
{
    80000a1e:	715d                	addi	sp,sp,-80
    80000a20:	e486                	sd	ra,72(sp)
    80000a22:	e0a2                	sd	s0,64(sp)
    80000a24:	f052                	sd	s4,32(sp)
    80000a26:	ec56                	sd	s5,24(sp)
    80000a28:	e85a                	sd	s6,16(sp)
    80000a2a:	0880                	addi	s0,sp,80
    80000a2c:	8b2a                	mv	s6,a0
    80000a2e:	8ab2                	mv	s5,a2
  oldsz = PGROUNDUP(oldsz);
    80000a30:	6785                	lui	a5,0x1
    80000a32:	17fd                	addi	a5,a5,-1 # fff <_entry-0x7ffff001>
    80000a34:	95be                	add	a1,a1,a5
    80000a36:	77fd                	lui	a5,0xfffff
    80000a38:	00f5fa33          	and	s4,a1,a5
  for (a = oldsz; a < newsz; a += PGSIZE)
    80000a3c:	08ca7f63          	bgeu	s4,a2,80000ada <uvmalloc+0xc0>
    80000a40:	fc26                	sd	s1,56(sp)
    80000a42:	f84a                	sd	s2,48(sp)
    80000a44:	f44e                	sd	s3,40(sp)
    80000a46:	e45e                	sd	s7,8(sp)
    80000a48:	8952                	mv	s2,s4
    memset(mem, 0, PGSIZE);
    80000a4a:	6985                	lui	s3,0x1
    if (mappages(pagetable, a, PGSIZE, (uint64)mem, PTE_W | PTE_X | PTE_R | PTE_U) != 0)
    80000a4c:	4bf9                	li	s7,30
    mem = kalloc();
    80000a4e:	fffff097          	auipc	ra,0xfffff
    80000a52:	7d0080e7          	jalr	2000(ra) # 8000021e <kalloc>
    80000a56:	84aa                	mv	s1,a0
    if (mem == 0)
    80000a58:	c915                	beqz	a0,80000a8c <uvmalloc+0x72>
    memset(mem, 0, PGSIZE);
    80000a5a:	864e                	mv	a2,s3
    80000a5c:	4581                	li	a1,0
    80000a5e:	00000097          	auipc	ra,0x0
    80000a62:	85a080e7          	jalr	-1958(ra) # 800002b8 <memset>
    if (mappages(pagetable, a, PGSIZE, (uint64)mem, PTE_W | PTE_X | PTE_R | PTE_U) != 0)
    80000a66:	875e                	mv	a4,s7
    80000a68:	86a6                	mv	a3,s1
    80000a6a:	864e                	mv	a2,s3
    80000a6c:	85ca                	mv	a1,s2
    80000a6e:	855a                	mv	a0,s6
    80000a70:	00000097          	auipc	ra,0x0
    80000a74:	c28080e7          	jalr	-984(ra) # 80000698 <mappages>
    80000a78:	ed0d                	bnez	a0,80000ab2 <uvmalloc+0x98>
  for (a = oldsz; a < newsz; a += PGSIZE)
    80000a7a:	994e                	add	s2,s2,s3
    80000a7c:	fd5969e3          	bltu	s2,s5,80000a4e <uvmalloc+0x34>
  return newsz;
    80000a80:	8556                	mv	a0,s5
    80000a82:	74e2                	ld	s1,56(sp)
    80000a84:	7942                	ld	s2,48(sp)
    80000a86:	79a2                	ld	s3,40(sp)
    80000a88:	6ba2                	ld	s7,8(sp)
    80000a8a:	a829                	j	80000aa4 <uvmalloc+0x8a>
      uvmdealloc(pagetable, a, oldsz);
    80000a8c:	8652                	mv	a2,s4
    80000a8e:	85ca                	mv	a1,s2
    80000a90:	855a                	mv	a0,s6
    80000a92:	00000097          	auipc	ra,0x0
    80000a96:	f40080e7          	jalr	-192(ra) # 800009d2 <uvmdealloc>
      return 0;
    80000a9a:	4501                	li	a0,0
    80000a9c:	74e2                	ld	s1,56(sp)
    80000a9e:	7942                	ld	s2,48(sp)
    80000aa0:	79a2                	ld	s3,40(sp)
    80000aa2:	6ba2                	ld	s7,8(sp)
}
    80000aa4:	60a6                	ld	ra,72(sp)
    80000aa6:	6406                	ld	s0,64(sp)
    80000aa8:	7a02                	ld	s4,32(sp)
    80000aaa:	6ae2                	ld	s5,24(sp)
    80000aac:	6b42                	ld	s6,16(sp)
    80000aae:	6161                	addi	sp,sp,80
    80000ab0:	8082                	ret
      kfree(mem);
    80000ab2:	8526                	mv	a0,s1
    80000ab4:	fffff097          	auipc	ra,0xfffff
    80000ab8:	600080e7          	jalr	1536(ra) # 800000b4 <kfree>
      uvmdealloc(pagetable, a, oldsz);
    80000abc:	8652                	mv	a2,s4
    80000abe:	85ca                	mv	a1,s2
    80000ac0:	855a                	mv	a0,s6
    80000ac2:	00000097          	auipc	ra,0x0
    80000ac6:	f10080e7          	jalr	-240(ra) # 800009d2 <uvmdealloc>
      return 0;
    80000aca:	4501                	li	a0,0
    80000acc:	74e2                	ld	s1,56(sp)
    80000ace:	7942                	ld	s2,48(sp)
    80000ad0:	79a2                	ld	s3,40(sp)
    80000ad2:	6ba2                	ld	s7,8(sp)
    80000ad4:	bfc1                	j	80000aa4 <uvmalloc+0x8a>
    return oldsz;
    80000ad6:	852e                	mv	a0,a1
}
    80000ad8:	8082                	ret
  return newsz;
    80000ada:	8532                	mv	a0,a2
    80000adc:	b7e1                	j	80000aa4 <uvmalloc+0x8a>

0000000080000ade <freewalk>:

// Recursively free page-table pages.
// All leaf mappings must already have been removed.
void freewalk(pagetable_t pagetable)
{
    80000ade:	7179                	addi	sp,sp,-48
    80000ae0:	f406                	sd	ra,40(sp)
    80000ae2:	f022                	sd	s0,32(sp)
    80000ae4:	ec26                	sd	s1,24(sp)
    80000ae6:	e84a                	sd	s2,16(sp)
    80000ae8:	e44e                	sd	s3,8(sp)
    80000aea:	e052                	sd	s4,0(sp)
    80000aec:	1800                	addi	s0,sp,48
    80000aee:	8a2a                	mv	s4,a0
  // there are 2^9 = 512 PTEs in a page table.
  for (int i = 0; i < 512; i++)
    80000af0:	84aa                	mv	s1,a0
    80000af2:	6905                	lui	s2,0x1
    80000af4:	992a                	add	s2,s2,a0
  {
    pte_t pte = pagetable[i];
    if ((pte & PTE_V) && (pte & (PTE_R | PTE_W | PTE_X)) == 0)
    80000af6:	4985                	li	s3,1
    80000af8:	a829                	j	80000b12 <freewalk+0x34>
    {
      // this PTE points to a lower-level page table.
      uint64 child = PTE2PA(pte);
    80000afa:	83a9                	srli	a5,a5,0xa
      freewalk((pagetable_t)child);
    80000afc:	00c79513          	slli	a0,a5,0xc
    80000b00:	00000097          	auipc	ra,0x0
    80000b04:	fde080e7          	jalr	-34(ra) # 80000ade <freewalk>
      pagetable[i] = 0;
    80000b08:	0004b023          	sd	zero,0(s1)
  for (int i = 0; i < 512; i++)
    80000b0c:	04a1                	addi	s1,s1,8
    80000b0e:	03248163          	beq	s1,s2,80000b30 <freewalk+0x52>
    pte_t pte = pagetable[i];
    80000b12:	609c                	ld	a5,0(s1)
    if ((pte & PTE_V) && (pte & (PTE_R | PTE_W | PTE_X)) == 0)
    80000b14:	00f7f713          	andi	a4,a5,15
    80000b18:	ff3701e3          	beq	a4,s3,80000afa <freewalk+0x1c>
    }
    else if (pte & PTE_V)
    80000b1c:	8b85                	andi	a5,a5,1
    80000b1e:	d7fd                	beqz	a5,80000b0c <freewalk+0x2e>
    {
      panic("freewalk: leaf");
    80000b20:	00007517          	auipc	a0,0x7
    80000b24:	5e850513          	addi	a0,a0,1512 # 80008108 <etext+0x108>
    80000b28:	00005097          	auipc	ra,0x5
    80000b2c:	3ea080e7          	jalr	1002(ra) # 80005f12 <panic>
    }
  }
  kfree((void *)pagetable);
    80000b30:	8552                	mv	a0,s4
    80000b32:	fffff097          	auipc	ra,0xfffff
    80000b36:	582080e7          	jalr	1410(ra) # 800000b4 <kfree>
}
    80000b3a:	70a2                	ld	ra,40(sp)
    80000b3c:	7402                	ld	s0,32(sp)
    80000b3e:	64e2                	ld	s1,24(sp)
    80000b40:	6942                	ld	s2,16(sp)
    80000b42:	69a2                	ld	s3,8(sp)
    80000b44:	6a02                	ld	s4,0(sp)
    80000b46:	6145                	addi	sp,sp,48
    80000b48:	8082                	ret

0000000080000b4a <uvmfree>:

// Free user memory pages,
// then free page-table pages.
void uvmfree(pagetable_t pagetable, uint64 sz)
{
    80000b4a:	1101                	addi	sp,sp,-32
    80000b4c:	ec06                	sd	ra,24(sp)
    80000b4e:	e822                	sd	s0,16(sp)
    80000b50:	e426                	sd	s1,8(sp)
    80000b52:	1000                	addi	s0,sp,32
    80000b54:	84aa                	mv	s1,a0
  if (sz > 0)
    80000b56:	e999                	bnez	a1,80000b6c <uvmfree+0x22>
    uvmunmap(pagetable, 0, PGROUNDUP(sz) / PGSIZE, 1);
  freewalk(pagetable);
    80000b58:	8526                	mv	a0,s1
    80000b5a:	00000097          	auipc	ra,0x0
    80000b5e:	f84080e7          	jalr	-124(ra) # 80000ade <freewalk>
}
    80000b62:	60e2                	ld	ra,24(sp)
    80000b64:	6442                	ld	s0,16(sp)
    80000b66:	64a2                	ld	s1,8(sp)
    80000b68:	6105                	addi	sp,sp,32
    80000b6a:	8082                	ret
    uvmunmap(pagetable, 0, PGROUNDUP(sz) / PGSIZE, 1);
    80000b6c:	6785                	lui	a5,0x1
    80000b6e:	17fd                	addi	a5,a5,-1 # fff <_entry-0x7ffff001>
    80000b70:	95be                	add	a1,a1,a5
    80000b72:	4685                	li	a3,1
    80000b74:	00c5d613          	srli	a2,a1,0xc
    80000b78:	4581                	li	a1,0
    80000b7a:	00000097          	auipc	ra,0x0
    80000b7e:	ce4080e7          	jalr	-796(ra) # 8000085e <uvmunmap>
    80000b82:	bfd9                	j	80000b58 <uvmfree+0xe>

0000000080000b84 <uvmcopy>:
// Copies both the page table and the
// physical memory.
// returns 0 on success, -1 on failure.
// frees any allocated pages on failure.
int uvmcopy(pagetable_t old, pagetable_t new, uint64 sz)
{
    80000b84:	7159                	addi	sp,sp,-112
    80000b86:	f486                	sd	ra,104(sp)
    80000b88:	f0a2                	sd	s0,96(sp)
    80000b8a:	f85a                	sd	s6,48(sp)
    80000b8c:	1880                	addi	s0,sp,112
  pte_t *pte;
  uint64 pa, i;
  uint flags;

  for (i = 0; i < sz; i += PGSIZE)
    80000b8e:	c66d                	beqz	a2,80000c78 <uvmcopy+0xf4>
    80000b90:	eca6                	sd	s1,88(sp)
    80000b92:	e8ca                	sd	s2,80(sp)
    80000b94:	e4ce                	sd	s3,72(sp)
    80000b96:	e0d2                	sd	s4,64(sp)
    80000b98:	fc56                	sd	s5,56(sp)
    80000b9a:	f45e                	sd	s7,40(sp)
    80000b9c:	f062                	sd	s8,32(sp)
    80000b9e:	ec66                	sd	s9,24(sp)
    80000ba0:	e86a                	sd	s10,16(sp)
    80000ba2:	e46e                	sd	s11,8(sp)
    80000ba4:	8d2a                	mv	s10,a0
    80000ba6:	8cae                	mv	s9,a1
    80000ba8:	8c32                	mv	s8,a2
    80000baa:	4a01                	li	s4,0

    flags = PTE_FLAGS(*pte);
    flags &= ~PTE_W;
    flags |= PTE_C; // mark as copy-on-write

    if (mappages(new, i, PGSIZE, pa, flags) != 0)
    80000bac:	6b85                	lui	s7,0x1
    {
      goto err;
    }
    *pte = PA2PTE(pa) | flags;
    80000bae:	7dfd                	lui	s11,0xfffff
    80000bb0:	002ddd93          	srli	s11,s11,0x2
    if ((pte = walk(old, i, 0)) == 0)
    80000bb4:	4601                	li	a2,0
    80000bb6:	85d2                	mv	a1,s4
    80000bb8:	856a                	mv	a0,s10
    80000bba:	00000097          	auipc	ra,0x0
    80000bbe:	9f6080e7          	jalr	-1546(ra) # 800005b0 <walk>
    80000bc2:	89aa                	mv	s3,a0
    80000bc4:	c125                	beqz	a0,80000c24 <uvmcopy+0xa0>
    if ((*pte & PTE_V) == 0)
    80000bc6:	6104                	ld	s1,0(a0)
    80000bc8:	0014f793          	andi	a5,s1,1
    80000bcc:	c7a5                	beqz	a5,80000c34 <uvmcopy+0xb0>
    pa = PTE2PA(*pte);
    80000bce:	00a4da93          	srli	s5,s1,0xa
    80000bd2:	0ab2                	slli	s5,s5,0xc
    flags &= ~PTE_W;
    80000bd4:	3fb4f913          	andi	s2,s1,1019
    flags |= PTE_C; // mark as copy-on-write
    80000bd8:	10096913          	ori	s2,s2,256
    if (mappages(new, i, PGSIZE, pa, flags) != 0)
    80000bdc:	874a                	mv	a4,s2
    80000bde:	86d6                	mv	a3,s5
    80000be0:	865e                	mv	a2,s7
    80000be2:	85d2                	mv	a1,s4
    80000be4:	8566                	mv	a0,s9
    80000be6:	00000097          	auipc	ra,0x0
    80000bea:	ab2080e7          	jalr	-1358(ra) # 80000698 <mappages>
    80000bee:	8b2a                	mv	s6,a0
    80000bf0:	e931                	bnez	a0,80000c44 <uvmcopy+0xc0>
    *pte = PA2PTE(pa) | flags;
    80000bf2:	01b4f4b3          	and	s1,s1,s11
    80000bf6:	00996933          	or	s2,s2,s1
    80000bfa:	0129b023          	sd	s2,0(s3) # 1000 <_entry-0x7ffff000>
    refcnt_incr(pa); // increment reference count for the physical page
    80000bfe:	8556                	mv	a0,s5
    80000c00:	fffff097          	auipc	ra,0xfffff
    80000c04:	41c080e7          	jalr	1052(ra) # 8000001c <refcnt_incr>
  for (i = 0; i < sz; i += PGSIZE)
    80000c08:	9a5e                	add	s4,s4,s7
    80000c0a:	fb8a65e3          	bltu	s4,s8,80000bb4 <uvmcopy+0x30>
    80000c0e:	64e6                	ld	s1,88(sp)
    80000c10:	6946                	ld	s2,80(sp)
    80000c12:	69a6                	ld	s3,72(sp)
    80000c14:	6a06                	ld	s4,64(sp)
    80000c16:	7ae2                	ld	s5,56(sp)
    80000c18:	7ba2                	ld	s7,40(sp)
    80000c1a:	7c02                	ld	s8,32(sp)
    80000c1c:	6ce2                	ld	s9,24(sp)
    80000c1e:	6d42                	ld	s10,16(sp)
    80000c20:	6da2                	ld	s11,8(sp)
    80000c22:	a0a9                	j	80000c6c <uvmcopy+0xe8>
      panic("uvmcopy: pte should exist");
    80000c24:	00007517          	auipc	a0,0x7
    80000c28:	4f450513          	addi	a0,a0,1268 # 80008118 <etext+0x118>
    80000c2c:	00005097          	auipc	ra,0x5
    80000c30:	2e6080e7          	jalr	742(ra) # 80005f12 <panic>
      panic("uvmcopy: page not present");
    80000c34:	00007517          	auipc	a0,0x7
    80000c38:	50450513          	addi	a0,a0,1284 # 80008138 <etext+0x138>
    80000c3c:	00005097          	auipc	ra,0x5
    80000c40:	2d6080e7          	jalr	726(ra) # 80005f12 <panic>
  }
  return 0;

err:
  uvmunmap(new, 0, i / PGSIZE, 1);
    80000c44:	4685                	li	a3,1
    80000c46:	00ca5613          	srli	a2,s4,0xc
    80000c4a:	4581                	li	a1,0
    80000c4c:	8566                	mv	a0,s9
    80000c4e:	00000097          	auipc	ra,0x0
    80000c52:	c10080e7          	jalr	-1008(ra) # 8000085e <uvmunmap>
  return -1;
    80000c56:	5b7d                	li	s6,-1
    80000c58:	64e6                	ld	s1,88(sp)
    80000c5a:	6946                	ld	s2,80(sp)
    80000c5c:	69a6                	ld	s3,72(sp)
    80000c5e:	6a06                	ld	s4,64(sp)
    80000c60:	7ae2                	ld	s5,56(sp)
    80000c62:	7ba2                	ld	s7,40(sp)
    80000c64:	7c02                	ld	s8,32(sp)
    80000c66:	6ce2                	ld	s9,24(sp)
    80000c68:	6d42                	ld	s10,16(sp)
    80000c6a:	6da2                	ld	s11,8(sp)
}
    80000c6c:	855a                	mv	a0,s6
    80000c6e:	70a6                	ld	ra,104(sp)
    80000c70:	7406                	ld	s0,96(sp)
    80000c72:	7b42                	ld	s6,48(sp)
    80000c74:	6165                	addi	sp,sp,112
    80000c76:	8082                	ret
  return 0;
    80000c78:	4b01                	li	s6,0
    80000c7a:	bfcd                	j	80000c6c <uvmcopy+0xe8>

0000000080000c7c <uvmclear>:

// mark a PTE invalid for user access.
// used by exec for the user stack guard page.
void uvmclear(pagetable_t pagetable, uint64 va)
{
    80000c7c:	1141                	addi	sp,sp,-16
    80000c7e:	e406                	sd	ra,8(sp)
    80000c80:	e022                	sd	s0,0(sp)
    80000c82:	0800                	addi	s0,sp,16
  pte_t *pte;

  pte = walk(pagetable, va, 0);
    80000c84:	4601                	li	a2,0
    80000c86:	00000097          	auipc	ra,0x0
    80000c8a:	92a080e7          	jalr	-1750(ra) # 800005b0 <walk>
  if (pte == 0)
    80000c8e:	c901                	beqz	a0,80000c9e <uvmclear+0x22>
    panic("uvmclear");
  *pte &= ~PTE_U;
    80000c90:	611c                	ld	a5,0(a0)
    80000c92:	9bbd                	andi	a5,a5,-17
    80000c94:	e11c                	sd	a5,0(a0)
}
    80000c96:	60a2                	ld	ra,8(sp)
    80000c98:	6402                	ld	s0,0(sp)
    80000c9a:	0141                	addi	sp,sp,16
    80000c9c:	8082                	ret
    panic("uvmclear");
    80000c9e:	00007517          	auipc	a0,0x7
    80000ca2:	4ba50513          	addi	a0,a0,1210 # 80008158 <etext+0x158>
    80000ca6:	00005097          	auipc	ra,0x5
    80000caa:	26c080e7          	jalr	620(ra) # 80005f12 <panic>

0000000080000cae <copyout>:
{
  uint64 n, va0, pa0;
  pte_t *pte;
  char *mem;

  while (len > 0)
    80000cae:	c6e5                	beqz	a3,80000d96 <copyout+0xe8>
{
    80000cb0:	7119                	addi	sp,sp,-128
    80000cb2:	fc86                	sd	ra,120(sp)
    80000cb4:	f8a2                	sd	s0,112(sp)
    80000cb6:	f4a6                	sd	s1,104(sp)
    80000cb8:	f0ca                	sd	s2,96(sp)
    80000cba:	ecce                	sd	s3,88(sp)
    80000cbc:	e8d2                	sd	s4,80(sp)
    80000cbe:	e4d6                	sd	s5,72(sp)
    80000cc0:	e0da                	sd	s6,64(sp)
    80000cc2:	fc5e                	sd	s7,56(sp)
    80000cc4:	f862                	sd	s8,48(sp)
    80000cc6:	f466                	sd	s9,40(sp)
    80000cc8:	f06a                	sd	s10,32(sp)
    80000cca:	ec6e                	sd	s11,24(sp)
    80000ccc:	0100                	addi	s0,sp,128
    80000cce:	8d2a                	mv	s10,a0
    80000cd0:	8a2e                	mv	s4,a1
    80000cd2:	8c32                	mv	s8,a2
    80000cd4:	8bb6                	mv	s7,a3
  {
    va0 = PGROUNDDOWN(dstva);
    80000cd6:	7dfd                	lui	s11,0xfffff
    
    if(va0 > MAXVA) return -1;
    80000cd8:	4785                	li	a5,1
    80000cda:	179a                	slli	a5,a5,0x26
    80000cdc:	f8f43423          	sd	a5,-120(s0)
    flags |= PTE_W;
    flags &= ~PTE_C; // clear COW flag
    if((mem = kalloc()) == 0) {
      return -1; // out of memory
    }
    memmove(mem, (char *)pa, PGSIZE); // copy the page content
    80000ce0:	6c85                	lui	s9,0x1
    80000ce2:	a015                	j	80000d06 <copyout+0x58>
    if (pa0 == 0)
      return -1; // page not present
    n = PGSIZE - (dstva - va0);
    if (n > len)
      n = len;
    memmove((void *)(pa0 + (dstva - va0)), src, n);
    80000ce4:	413a0a33          	sub	s4,s4,s3
    80000ce8:	0004861b          	sext.w	a2,s1
    80000cec:	85e2                	mv	a1,s8
    80000cee:	9552                	add	a0,a0,s4
    80000cf0:	fffff097          	auipc	ra,0xfffff
    80000cf4:	62c080e7          	jalr	1580(ra) # 8000031c <memmove>
    len -= n;
    80000cf8:	409b8bb3          	sub	s7,s7,s1
    src += n;
    80000cfc:	9c26                	add	s8,s8,s1
    dstva = va0 + PGSIZE;
    80000cfe:	01998a33          	add	s4,s3,s9
  while (len > 0)
    80000d02:	080b8863          	beqz	s7,80000d92 <copyout+0xe4>
    va0 = PGROUNDDOWN(dstva);
    80000d06:	01ba79b3          	and	s3,s4,s11
    if(va0 > MAXVA) return -1;
    80000d0a:	f8843783          	ld	a5,-120(s0)
    80000d0e:	0937e663          	bltu	a5,s3,80000d9a <copyout+0xec>
    pte = walk(pagetable, va0, 0);
    80000d12:	4601                	li	a2,0
    80000d14:	85ce                	mv	a1,s3
    80000d16:	856a                	mv	a0,s10
    80000d18:	00000097          	auipc	ra,0x0
    80000d1c:	898080e7          	jalr	-1896(ra) # 800005b0 <walk>
    80000d20:	8aaa                	mv	s5,a0
    if(pte == 0 || (*pte & (PTE_V)) == 0 || (*pte & PTE_U) == 0) {
    80000d22:	cd41                	beqz	a0,80000dba <copyout+0x10c>
    80000d24:	611c                	ld	a5,0(a0)
    80000d26:	0117f713          	andi	a4,a5,17
    80000d2a:	46c5                	li	a3,17
    80000d2c:	08d71963          	bne	a4,a3,80000dbe <copyout+0x110>
    uint64 pa = PTE2PA(*pte);
    80000d30:	00a7db13          	srli	s6,a5,0xa
    80000d34:	0b32                	slli	s6,s6,0xc
    uint flags = PTE_FLAGS(*pte);
    80000d36:	0007891b          	sext.w	s2,a5
    if(!(flags & PTE_C)) return -1; // not a COW page, so can't write to it
    80000d3a:	1007f793          	andi	a5,a5,256
    80000d3e:	c3d1                	beqz	a5,80000dc2 <copyout+0x114>
    flags &= ~PTE_C; // clear COW flag
    80000d40:	2ff97913          	andi	s2,s2,767
    80000d44:	00496913          	ori	s2,s2,4
    if((mem = kalloc()) == 0) {
    80000d48:	fffff097          	auipc	ra,0xfffff
    80000d4c:	4d6080e7          	jalr	1238(ra) # 8000021e <kalloc>
    80000d50:	84aa                	mv	s1,a0
    80000d52:	c935                	beqz	a0,80000dc6 <copyout+0x118>
    memmove(mem, (char *)pa, PGSIZE); // copy the page content
    80000d54:	8666                	mv	a2,s9
    80000d56:	85da                	mv	a1,s6
    80000d58:	fffff097          	auipc	ra,0xfffff
    80000d5c:	5c4080e7          	jalr	1476(ra) # 8000031c <memmove>
    *pte = PA2PTE((uint64)mem) | flags; // update the page table entry
    80000d60:	80b1                	srli	s1,s1,0xc
    80000d62:	04aa                	slli	s1,s1,0xa
    80000d64:	00996933          	or	s2,s2,s1
    80000d68:	012ab023          	sd	s2,0(s5)
    kfree((void *)pa); // free the old page
    80000d6c:	855a                	mv	a0,s6
    80000d6e:	fffff097          	auipc	ra,0xfffff
    80000d72:	346080e7          	jalr	838(ra) # 800000b4 <kfree>
    pa0 = walkaddr(pagetable, va0);
    80000d76:	85ce                	mv	a1,s3
    80000d78:	856a                	mv	a0,s10
    80000d7a:	00000097          	auipc	ra,0x0
    80000d7e:	8dc080e7          	jalr	-1828(ra) # 80000656 <walkaddr>
    if (pa0 == 0)
    80000d82:	c521                	beqz	a0,80000dca <copyout+0x11c>
    n = PGSIZE - (dstva - va0);
    80000d84:	414984b3          	sub	s1,s3,s4
    80000d88:	94e6                	add	s1,s1,s9
    if (n > len)
    80000d8a:	f49bfde3          	bgeu	s7,s1,80000ce4 <copyout+0x36>
    80000d8e:	84de                	mv	s1,s7
    80000d90:	bf91                	j	80000ce4 <copyout+0x36>
  }
  return 0;
    80000d92:	4501                	li	a0,0
    80000d94:	a021                	j	80000d9c <copyout+0xee>
    80000d96:	4501                	li	a0,0
}
    80000d98:	8082                	ret
    if(va0 > MAXVA) return -1;
    80000d9a:	557d                	li	a0,-1
}
    80000d9c:	70e6                	ld	ra,120(sp)
    80000d9e:	7446                	ld	s0,112(sp)
    80000da0:	74a6                	ld	s1,104(sp)
    80000da2:	7906                	ld	s2,96(sp)
    80000da4:	69e6                	ld	s3,88(sp)
    80000da6:	6a46                	ld	s4,80(sp)
    80000da8:	6aa6                	ld	s5,72(sp)
    80000daa:	6b06                	ld	s6,64(sp)
    80000dac:	7be2                	ld	s7,56(sp)
    80000dae:	7c42                	ld	s8,48(sp)
    80000db0:	7ca2                	ld	s9,40(sp)
    80000db2:	7d02                	ld	s10,32(sp)
    80000db4:	6de2                	ld	s11,24(sp)
    80000db6:	6109                	addi	sp,sp,128
    80000db8:	8082                	ret
      return -1;
    80000dba:	557d                	li	a0,-1
    80000dbc:	b7c5                	j	80000d9c <copyout+0xee>
    80000dbe:	557d                	li	a0,-1
    80000dc0:	bff1                	j	80000d9c <copyout+0xee>
    if(!(flags & PTE_C)) return -1; // not a COW page, so can't write to it
    80000dc2:	557d                	li	a0,-1
    80000dc4:	bfe1                	j	80000d9c <copyout+0xee>
      return -1; // out of memory
    80000dc6:	557d                	li	a0,-1
    80000dc8:	bfd1                	j	80000d9c <copyout+0xee>
      return -1; // page not present
    80000dca:	557d                	li	a0,-1
    80000dcc:	bfc1                	j	80000d9c <copyout+0xee>

0000000080000dce <copyin>:
// Return 0 on success, -1 on error.
int copyin(pagetable_t pagetable, char *dst, uint64 srcva, uint64 len)
{
  uint64 n, va0, pa0;

  while (len > 0)
    80000dce:	caa5                	beqz	a3,80000e3e <copyin+0x70>
{
    80000dd0:	715d                	addi	sp,sp,-80
    80000dd2:	e486                	sd	ra,72(sp)
    80000dd4:	e0a2                	sd	s0,64(sp)
    80000dd6:	fc26                	sd	s1,56(sp)
    80000dd8:	f84a                	sd	s2,48(sp)
    80000dda:	f44e                	sd	s3,40(sp)
    80000ddc:	f052                	sd	s4,32(sp)
    80000dde:	ec56                	sd	s5,24(sp)
    80000de0:	e85a                	sd	s6,16(sp)
    80000de2:	e45e                	sd	s7,8(sp)
    80000de4:	e062                	sd	s8,0(sp)
    80000de6:	0880                	addi	s0,sp,80
    80000de8:	8b2a                	mv	s6,a0
    80000dea:	8a2e                	mv	s4,a1
    80000dec:	8c32                	mv	s8,a2
    80000dee:	89b6                	mv	s3,a3
  {
    va0 = PGROUNDDOWN(srcva);
    80000df0:	7bfd                	lui	s7,0xfffff
    pa0 = walkaddr(pagetable, va0);
    if (pa0 == 0)
      return -1;
    n = PGSIZE - (srcva - va0);
    80000df2:	6a85                	lui	s5,0x1
    80000df4:	a01d                	j	80000e1a <copyin+0x4c>
    if (n > len)
      n = len;
    memmove(dst, (void *)(pa0 + (srcva - va0)), n);
    80000df6:	018505b3          	add	a1,a0,s8
    80000dfa:	0004861b          	sext.w	a2,s1
    80000dfe:	412585b3          	sub	a1,a1,s2
    80000e02:	8552                	mv	a0,s4
    80000e04:	fffff097          	auipc	ra,0xfffff
    80000e08:	518080e7          	jalr	1304(ra) # 8000031c <memmove>

    len -= n;
    80000e0c:	409989b3          	sub	s3,s3,s1
    dst += n;
    80000e10:	9a26                	add	s4,s4,s1
    srcva = va0 + PGSIZE;
    80000e12:	01590c33          	add	s8,s2,s5
  while (len > 0)
    80000e16:	02098263          	beqz	s3,80000e3a <copyin+0x6c>
    va0 = PGROUNDDOWN(srcva);
    80000e1a:	017c7933          	and	s2,s8,s7
    pa0 = walkaddr(pagetable, va0);
    80000e1e:	85ca                	mv	a1,s2
    80000e20:	855a                	mv	a0,s6
    80000e22:	00000097          	auipc	ra,0x0
    80000e26:	834080e7          	jalr	-1996(ra) # 80000656 <walkaddr>
    if (pa0 == 0)
    80000e2a:	cd01                	beqz	a0,80000e42 <copyin+0x74>
    n = PGSIZE - (srcva - va0);
    80000e2c:	418904b3          	sub	s1,s2,s8
    80000e30:	94d6                	add	s1,s1,s5
    if (n > len)
    80000e32:	fc99f2e3          	bgeu	s3,s1,80000df6 <copyin+0x28>
    80000e36:	84ce                	mv	s1,s3
    80000e38:	bf7d                	j	80000df6 <copyin+0x28>
  }
  return 0;
    80000e3a:	4501                	li	a0,0
    80000e3c:	a021                	j	80000e44 <copyin+0x76>
    80000e3e:	4501                	li	a0,0
}
    80000e40:	8082                	ret
      return -1;
    80000e42:	557d                	li	a0,-1
}
    80000e44:	60a6                	ld	ra,72(sp)
    80000e46:	6406                	ld	s0,64(sp)
    80000e48:	74e2                	ld	s1,56(sp)
    80000e4a:	7942                	ld	s2,48(sp)
    80000e4c:	79a2                	ld	s3,40(sp)
    80000e4e:	7a02                	ld	s4,32(sp)
    80000e50:	6ae2                	ld	s5,24(sp)
    80000e52:	6b42                	ld	s6,16(sp)
    80000e54:	6ba2                	ld	s7,8(sp)
    80000e56:	6c02                	ld	s8,0(sp)
    80000e58:	6161                	addi	sp,sp,80
    80000e5a:	8082                	ret

0000000080000e5c <copyinstr>:
// Copy a null-terminated string from user to kernel.
// Copy bytes to dst from virtual address srcva in a given page table,
// until a '\0', or max.
// Return 0 on success, -1 on error.
int copyinstr(pagetable_t pagetable, char *dst, uint64 srcva, uint64 max)
{
    80000e5c:	715d                	addi	sp,sp,-80
    80000e5e:	e486                	sd	ra,72(sp)
    80000e60:	e0a2                	sd	s0,64(sp)
    80000e62:	fc26                	sd	s1,56(sp)
    80000e64:	f84a                	sd	s2,48(sp)
    80000e66:	f44e                	sd	s3,40(sp)
    80000e68:	f052                	sd	s4,32(sp)
    80000e6a:	ec56                	sd	s5,24(sp)
    80000e6c:	e85a                	sd	s6,16(sp)
    80000e6e:	e45e                	sd	s7,8(sp)
    80000e70:	0880                	addi	s0,sp,80
    80000e72:	8aaa                	mv	s5,a0
    80000e74:	89ae                	mv	s3,a1
    80000e76:	8bb2                	mv	s7,a2
    80000e78:	84b6                	mv	s1,a3
  uint64 n, va0, pa0;
  int got_null = 0;

  while (got_null == 0 && max > 0)
  {
    va0 = PGROUNDDOWN(srcva);
    80000e7a:	7b7d                	lui	s6,0xfffff
    pa0 = walkaddr(pagetable, va0);
    if (pa0 == 0)
      return -1;
    n = PGSIZE - (srcva - va0);
    80000e7c:	6a05                	lui	s4,0x1
    80000e7e:	a02d                	j	80000ea8 <copyinstr+0x4c>
    char *p = (char *)(pa0 + (srcva - va0));
    while (n > 0)
    {
      if (*p == '\0')
      {
        *dst = '\0';
    80000e80:	00078023          	sb	zero,0(a5)
    80000e84:	4785                	li	a5,1
      dst++;
    }

    srcva = va0 + PGSIZE;
  }
  if (got_null)
    80000e86:	0017c793          	xori	a5,a5,1
    80000e8a:	40f0053b          	negw	a0,a5
  }
  else
  {
    return -1;
  }
}
    80000e8e:	60a6                	ld	ra,72(sp)
    80000e90:	6406                	ld	s0,64(sp)
    80000e92:	74e2                	ld	s1,56(sp)
    80000e94:	7942                	ld	s2,48(sp)
    80000e96:	79a2                	ld	s3,40(sp)
    80000e98:	7a02                	ld	s4,32(sp)
    80000e9a:	6ae2                	ld	s5,24(sp)
    80000e9c:	6b42                	ld	s6,16(sp)
    80000e9e:	6ba2                	ld	s7,8(sp)
    80000ea0:	6161                	addi	sp,sp,80
    80000ea2:	8082                	ret
    srcva = va0 + PGSIZE;
    80000ea4:	01490bb3          	add	s7,s2,s4
  while (got_null == 0 && max > 0)
    80000ea8:	c8a1                	beqz	s1,80000ef8 <copyinstr+0x9c>
    va0 = PGROUNDDOWN(srcva);
    80000eaa:	016bf933          	and	s2,s7,s6
    pa0 = walkaddr(pagetable, va0);
    80000eae:	85ca                	mv	a1,s2
    80000eb0:	8556                	mv	a0,s5
    80000eb2:	fffff097          	auipc	ra,0xfffff
    80000eb6:	7a4080e7          	jalr	1956(ra) # 80000656 <walkaddr>
    if (pa0 == 0)
    80000eba:	c129                	beqz	a0,80000efc <copyinstr+0xa0>
    n = PGSIZE - (srcva - va0);
    80000ebc:	41790633          	sub	a2,s2,s7
    80000ec0:	9652                	add	a2,a2,s4
    if (n > max)
    80000ec2:	00c4f363          	bgeu	s1,a2,80000ec8 <copyinstr+0x6c>
    80000ec6:	8626                	mv	a2,s1
    char *p = (char *)(pa0 + (srcva - va0));
    80000ec8:	412b8bb3          	sub	s7,s7,s2
    80000ecc:	9baa                	add	s7,s7,a0
    while (n > 0)
    80000ece:	da79                	beqz	a2,80000ea4 <copyinstr+0x48>
    80000ed0:	87ce                	mv	a5,s3
      if (*p == '\0')
    80000ed2:	413b86b3          	sub	a3,s7,s3
    while (n > 0)
    80000ed6:	964e                	add	a2,a2,s3
    80000ed8:	85be                	mv	a1,a5
      if (*p == '\0')
    80000eda:	00f68733          	add	a4,a3,a5
    80000ede:	00074703          	lbu	a4,0(a4) # fffffffffffff000 <end+0xffffffff7fd98dc0>
    80000ee2:	df59                	beqz	a4,80000e80 <copyinstr+0x24>
        *dst = *p;
    80000ee4:	00e78023          	sb	a4,0(a5)
      dst++;
    80000ee8:	0785                	addi	a5,a5,1
    while (n > 0)
    80000eea:	fec797e3          	bne	a5,a2,80000ed8 <copyinstr+0x7c>
    80000eee:	14fd                	addi	s1,s1,-1
    80000ef0:	94ce                	add	s1,s1,s3
      --max;
    80000ef2:	8c8d                	sub	s1,s1,a1
    80000ef4:	89be                	mv	s3,a5
    80000ef6:	b77d                	j	80000ea4 <copyinstr+0x48>
    80000ef8:	4781                	li	a5,0
    80000efa:	b771                	j	80000e86 <copyinstr+0x2a>
      return -1;
    80000efc:	557d                	li	a0,-1
    80000efe:	bf41                	j	80000e8e <copyinstr+0x32>

0000000080000f00 <proc_mapstacks>:

// Allocate a page for each process's kernel stack.
// Map it high in memory, followed by an invalid
// guard page.
void
proc_mapstacks(pagetable_t kpgtbl) {
    80000f00:	715d                	addi	sp,sp,-80
    80000f02:	e486                	sd	ra,72(sp)
    80000f04:	e0a2                	sd	s0,64(sp)
    80000f06:	fc26                	sd	s1,56(sp)
    80000f08:	f84a                	sd	s2,48(sp)
    80000f0a:	f44e                	sd	s3,40(sp)
    80000f0c:	f052                	sd	s4,32(sp)
    80000f0e:	ec56                	sd	s5,24(sp)
    80000f10:	e85a                	sd	s6,16(sp)
    80000f12:	e45e                	sd	s7,8(sp)
    80000f14:	e062                	sd	s8,0(sp)
    80000f16:	0880                	addi	s0,sp,80
    80000f18:	8a2a                	mv	s4,a0
  struct proc *p;
  
  for(p = proc; p < &proc[NPROC]; p++) {
    80000f1a:	00248497          	auipc	s1,0x248
    80000f1e:	59e48493          	addi	s1,s1,1438 # 802494b8 <proc>
    char *pa = kalloc();
    if(pa == 0)
      panic("kalloc");
    uint64 va = KSTACK((int) (p - proc));
    80000f22:	8c26                	mv	s8,s1
    80000f24:	a4fa57b7          	lui	a5,0xa4fa5
    80000f28:	fa578793          	addi	a5,a5,-91 # ffffffffa4fa4fa5 <end+0xffffffff24d3ed65>
    80000f2c:	4fa50937          	lui	s2,0x4fa50
    80000f30:	a5090913          	addi	s2,s2,-1456 # 4fa4fa50 <_entry-0x305b05b0>
    80000f34:	1902                	slli	s2,s2,0x20
    80000f36:	993e                	add	s2,s2,a5
    80000f38:	040009b7          	lui	s3,0x4000
    80000f3c:	19fd                	addi	s3,s3,-1 # 3ffffff <_entry-0x7c000001>
    80000f3e:	09b2                	slli	s3,s3,0xc
    kvmmap(kpgtbl, va, (uint64)pa, PGSIZE, PTE_R | PTE_W);
    80000f40:	4b99                	li	s7,6
    80000f42:	6b05                	lui	s6,0x1
  for(p = proc; p < &proc[NPROC]; p++) {
    80000f44:	0024ea97          	auipc	s5,0x24e
    80000f48:	f74a8a93          	addi	s5,s5,-140 # 8024eeb8 <tickslock>
    char *pa = kalloc();
    80000f4c:	fffff097          	auipc	ra,0xfffff
    80000f50:	2d2080e7          	jalr	722(ra) # 8000021e <kalloc>
    80000f54:	862a                	mv	a2,a0
    if(pa == 0)
    80000f56:	c131                	beqz	a0,80000f9a <proc_mapstacks+0x9a>
    uint64 va = KSTACK((int) (p - proc));
    80000f58:	418485b3          	sub	a1,s1,s8
    80000f5c:	858d                	srai	a1,a1,0x3
    80000f5e:	032585b3          	mul	a1,a1,s2
    80000f62:	2585                	addiw	a1,a1,1
    80000f64:	00d5959b          	slliw	a1,a1,0xd
    kvmmap(kpgtbl, va, (uint64)pa, PGSIZE, PTE_R | PTE_W);
    80000f68:	875e                	mv	a4,s7
    80000f6a:	86da                	mv	a3,s6
    80000f6c:	40b985b3          	sub	a1,s3,a1
    80000f70:	8552                	mv	a0,s4
    80000f72:	fffff097          	auipc	ra,0xfffff
    80000f76:	7cc080e7          	jalr	1996(ra) # 8000073e <kvmmap>
  for(p = proc; p < &proc[NPROC]; p++) {
    80000f7a:	16848493          	addi	s1,s1,360
    80000f7e:	fd5497e3          	bne	s1,s5,80000f4c <proc_mapstacks+0x4c>
  }
}
    80000f82:	60a6                	ld	ra,72(sp)
    80000f84:	6406                	ld	s0,64(sp)
    80000f86:	74e2                	ld	s1,56(sp)
    80000f88:	7942                	ld	s2,48(sp)
    80000f8a:	79a2                	ld	s3,40(sp)
    80000f8c:	7a02                	ld	s4,32(sp)
    80000f8e:	6ae2                	ld	s5,24(sp)
    80000f90:	6b42                	ld	s6,16(sp)
    80000f92:	6ba2                	ld	s7,8(sp)
    80000f94:	6c02                	ld	s8,0(sp)
    80000f96:	6161                	addi	sp,sp,80
    80000f98:	8082                	ret
      panic("kalloc");
    80000f9a:	00007517          	auipc	a0,0x7
    80000f9e:	1ce50513          	addi	a0,a0,462 # 80008168 <etext+0x168>
    80000fa2:	00005097          	auipc	ra,0x5
    80000fa6:	f70080e7          	jalr	-144(ra) # 80005f12 <panic>

0000000080000faa <procinit>:

// initialize the proc table at boot time.
void
procinit(void)
{
    80000faa:	7139                	addi	sp,sp,-64
    80000fac:	fc06                	sd	ra,56(sp)
    80000fae:	f822                	sd	s0,48(sp)
    80000fb0:	f426                	sd	s1,40(sp)
    80000fb2:	f04a                	sd	s2,32(sp)
    80000fb4:	ec4e                	sd	s3,24(sp)
    80000fb6:	e852                	sd	s4,16(sp)
    80000fb8:	e456                	sd	s5,8(sp)
    80000fba:	e05a                	sd	s6,0(sp)
    80000fbc:	0080                	addi	s0,sp,64
  struct proc *p;
  
  initlock(&pid_lock, "nextpid");
    80000fbe:	00007597          	auipc	a1,0x7
    80000fc2:	1b258593          	addi	a1,a1,434 # 80008170 <etext+0x170>
    80000fc6:	00248517          	auipc	a0,0x248
    80000fca:	0c250513          	addi	a0,a0,194 # 80249088 <pid_lock>
    80000fce:	00005097          	auipc	ra,0x5
    80000fd2:	430080e7          	jalr	1072(ra) # 800063fe <initlock>
  initlock(&wait_lock, "wait_lock");
    80000fd6:	00007597          	auipc	a1,0x7
    80000fda:	1a258593          	addi	a1,a1,418 # 80008178 <etext+0x178>
    80000fde:	00248517          	auipc	a0,0x248
    80000fe2:	0c250513          	addi	a0,a0,194 # 802490a0 <wait_lock>
    80000fe6:	00005097          	auipc	ra,0x5
    80000fea:	418080e7          	jalr	1048(ra) # 800063fe <initlock>
  for(p = proc; p < &proc[NPROC]; p++) {
    80000fee:	00248497          	auipc	s1,0x248
    80000ff2:	4ca48493          	addi	s1,s1,1226 # 802494b8 <proc>
      initlock(&p->lock, "proc");
    80000ff6:	00007b17          	auipc	s6,0x7
    80000ffa:	192b0b13          	addi	s6,s6,402 # 80008188 <etext+0x188>
      p->kstack = KSTACK((int) (p - proc));
    80000ffe:	8aa6                	mv	s5,s1
    80001000:	a4fa57b7          	lui	a5,0xa4fa5
    80001004:	fa578793          	addi	a5,a5,-91 # ffffffffa4fa4fa5 <end+0xffffffff24d3ed65>
    80001008:	4fa50937          	lui	s2,0x4fa50
    8000100c:	a5090913          	addi	s2,s2,-1456 # 4fa4fa50 <_entry-0x305b05b0>
    80001010:	1902                	slli	s2,s2,0x20
    80001012:	993e                	add	s2,s2,a5
    80001014:	040009b7          	lui	s3,0x4000
    80001018:	19fd                	addi	s3,s3,-1 # 3ffffff <_entry-0x7c000001>
    8000101a:	09b2                	slli	s3,s3,0xc
  for(p = proc; p < &proc[NPROC]; p++) {
    8000101c:	0024ea17          	auipc	s4,0x24e
    80001020:	e9ca0a13          	addi	s4,s4,-356 # 8024eeb8 <tickslock>
      initlock(&p->lock, "proc");
    80001024:	85da                	mv	a1,s6
    80001026:	8526                	mv	a0,s1
    80001028:	00005097          	auipc	ra,0x5
    8000102c:	3d6080e7          	jalr	982(ra) # 800063fe <initlock>
      p->kstack = KSTACK((int) (p - proc));
    80001030:	415487b3          	sub	a5,s1,s5
    80001034:	878d                	srai	a5,a5,0x3
    80001036:	032787b3          	mul	a5,a5,s2
    8000103a:	2785                	addiw	a5,a5,1
    8000103c:	00d7979b          	slliw	a5,a5,0xd
    80001040:	40f987b3          	sub	a5,s3,a5
    80001044:	e0bc                	sd	a5,64(s1)
  for(p = proc; p < &proc[NPROC]; p++) {
    80001046:	16848493          	addi	s1,s1,360
    8000104a:	fd449de3          	bne	s1,s4,80001024 <procinit+0x7a>
  }
}
    8000104e:	70e2                	ld	ra,56(sp)
    80001050:	7442                	ld	s0,48(sp)
    80001052:	74a2                	ld	s1,40(sp)
    80001054:	7902                	ld	s2,32(sp)
    80001056:	69e2                	ld	s3,24(sp)
    80001058:	6a42                	ld	s4,16(sp)
    8000105a:	6aa2                	ld	s5,8(sp)
    8000105c:	6b02                	ld	s6,0(sp)
    8000105e:	6121                	addi	sp,sp,64
    80001060:	8082                	ret

0000000080001062 <cpuid>:
// Must be called with interrupts disabled,
// to prevent race with process being moved
// to a different CPU.
int
cpuid()
{
    80001062:	1141                	addi	sp,sp,-16
    80001064:	e406                	sd	ra,8(sp)
    80001066:	e022                	sd	s0,0(sp)
    80001068:	0800                	addi	s0,sp,16
  asm volatile("mv %0, tp" : "=r" (x) );
    8000106a:	8512                	mv	a0,tp
  int id = r_tp();
  return id;
}
    8000106c:	2501                	sext.w	a0,a0
    8000106e:	60a2                	ld	ra,8(sp)
    80001070:	6402                	ld	s0,0(sp)
    80001072:	0141                	addi	sp,sp,16
    80001074:	8082                	ret

0000000080001076 <mycpu>:

// Return this CPU's cpu struct.
// Interrupts must be disabled.
struct cpu*
mycpu(void) {
    80001076:	1141                	addi	sp,sp,-16
    80001078:	e406                	sd	ra,8(sp)
    8000107a:	e022                	sd	s0,0(sp)
    8000107c:	0800                	addi	s0,sp,16
    8000107e:	8792                	mv	a5,tp
  int id = cpuid();
  struct cpu *c = &cpus[id];
    80001080:	2781                	sext.w	a5,a5
    80001082:	079e                	slli	a5,a5,0x7
  return c;
}
    80001084:	00248517          	auipc	a0,0x248
    80001088:	03450513          	addi	a0,a0,52 # 802490b8 <cpus>
    8000108c:	953e                	add	a0,a0,a5
    8000108e:	60a2                	ld	ra,8(sp)
    80001090:	6402                	ld	s0,0(sp)
    80001092:	0141                	addi	sp,sp,16
    80001094:	8082                	ret

0000000080001096 <myproc>:

// Return the current struct proc *, or zero if none.
struct proc*
myproc(void) {
    80001096:	1101                	addi	sp,sp,-32
    80001098:	ec06                	sd	ra,24(sp)
    8000109a:	e822                	sd	s0,16(sp)
    8000109c:	e426                	sd	s1,8(sp)
    8000109e:	1000                	addi	s0,sp,32
  push_off();
    800010a0:	00005097          	auipc	ra,0x5
    800010a4:	3a6080e7          	jalr	934(ra) # 80006446 <push_off>
    800010a8:	8792                	mv	a5,tp
  struct cpu *c = mycpu();
  struct proc *p = c->proc;
    800010aa:	2781                	sext.w	a5,a5
    800010ac:	079e                	slli	a5,a5,0x7
    800010ae:	00248717          	auipc	a4,0x248
    800010b2:	fda70713          	addi	a4,a4,-38 # 80249088 <pid_lock>
    800010b6:	97ba                	add	a5,a5,a4
    800010b8:	7b84                	ld	s1,48(a5)
  pop_off();
    800010ba:	00005097          	auipc	ra,0x5
    800010be:	42c080e7          	jalr	1068(ra) # 800064e6 <pop_off>
  return p;
}
    800010c2:	8526                	mv	a0,s1
    800010c4:	60e2                	ld	ra,24(sp)
    800010c6:	6442                	ld	s0,16(sp)
    800010c8:	64a2                	ld	s1,8(sp)
    800010ca:	6105                	addi	sp,sp,32
    800010cc:	8082                	ret

00000000800010ce <forkret>:

// A fork child's very first scheduling by scheduler()
// will swtch to forkret.
void
forkret(void)
{
    800010ce:	1141                	addi	sp,sp,-16
    800010d0:	e406                	sd	ra,8(sp)
    800010d2:	e022                	sd	s0,0(sp)
    800010d4:	0800                	addi	s0,sp,16
  static int first = 1;

  // Still holding p->lock from scheduler.
  release(&myproc()->lock);
    800010d6:	00000097          	auipc	ra,0x0
    800010da:	fc0080e7          	jalr	-64(ra) # 80001096 <myproc>
    800010de:	00005097          	auipc	ra,0x5
    800010e2:	464080e7          	jalr	1124(ra) # 80006542 <release>

  if (first) {
    800010e6:	00007797          	auipc	a5,0x7
    800010ea:	73a7a783          	lw	a5,1850(a5) # 80008820 <first.1>
    800010ee:	eb89                	bnez	a5,80001100 <forkret+0x32>
    // be run from main().
    first = 0;
    fsinit(ROOTDEV);
  }

  usertrapret();
    800010f0:	00001097          	auipc	ra,0x1
    800010f4:	c14080e7          	jalr	-1004(ra) # 80001d04 <usertrapret>
}
    800010f8:	60a2                	ld	ra,8(sp)
    800010fa:	6402                	ld	s0,0(sp)
    800010fc:	0141                	addi	sp,sp,16
    800010fe:	8082                	ret
    first = 0;
    80001100:	00007797          	auipc	a5,0x7
    80001104:	7207a023          	sw	zero,1824(a5) # 80008820 <first.1>
    fsinit(ROOTDEV);
    80001108:	4505                	li	a0,1
    8000110a:	00002097          	auipc	ra,0x2
    8000110e:	9dc080e7          	jalr	-1572(ra) # 80002ae6 <fsinit>
    80001112:	bff9                	j	800010f0 <forkret+0x22>

0000000080001114 <allocpid>:
allocpid() {
    80001114:	1101                	addi	sp,sp,-32
    80001116:	ec06                	sd	ra,24(sp)
    80001118:	e822                	sd	s0,16(sp)
    8000111a:	e426                	sd	s1,8(sp)
    8000111c:	e04a                	sd	s2,0(sp)
    8000111e:	1000                	addi	s0,sp,32
  acquire(&pid_lock);
    80001120:	00248917          	auipc	s2,0x248
    80001124:	f6890913          	addi	s2,s2,-152 # 80249088 <pid_lock>
    80001128:	854a                	mv	a0,s2
    8000112a:	00005097          	auipc	ra,0x5
    8000112e:	368080e7          	jalr	872(ra) # 80006492 <acquire>
  pid = nextpid;
    80001132:	00007797          	auipc	a5,0x7
    80001136:	6f278793          	addi	a5,a5,1778 # 80008824 <nextpid>
    8000113a:	4384                	lw	s1,0(a5)
  nextpid = nextpid + 1;
    8000113c:	0014871b          	addiw	a4,s1,1
    80001140:	c398                	sw	a4,0(a5)
  release(&pid_lock);
    80001142:	854a                	mv	a0,s2
    80001144:	00005097          	auipc	ra,0x5
    80001148:	3fe080e7          	jalr	1022(ra) # 80006542 <release>
}
    8000114c:	8526                	mv	a0,s1
    8000114e:	60e2                	ld	ra,24(sp)
    80001150:	6442                	ld	s0,16(sp)
    80001152:	64a2                	ld	s1,8(sp)
    80001154:	6902                	ld	s2,0(sp)
    80001156:	6105                	addi	sp,sp,32
    80001158:	8082                	ret

000000008000115a <proc_pagetable>:
{
    8000115a:	1101                	addi	sp,sp,-32
    8000115c:	ec06                	sd	ra,24(sp)
    8000115e:	e822                	sd	s0,16(sp)
    80001160:	e426                	sd	s1,8(sp)
    80001162:	e04a                	sd	s2,0(sp)
    80001164:	1000                	addi	s0,sp,32
    80001166:	892a                	mv	s2,a0
  pagetable = uvmcreate();
    80001168:	fffff097          	auipc	ra,0xfffff
    8000116c:	7ca080e7          	jalr	1994(ra) # 80000932 <uvmcreate>
    80001170:	84aa                	mv	s1,a0
  if(pagetable == 0)
    80001172:	c121                	beqz	a0,800011b2 <proc_pagetable+0x58>
  if(mappages(pagetable, TRAMPOLINE, PGSIZE,
    80001174:	4729                	li	a4,10
    80001176:	00006697          	auipc	a3,0x6
    8000117a:	e8a68693          	addi	a3,a3,-374 # 80007000 <_trampoline>
    8000117e:	6605                	lui	a2,0x1
    80001180:	040005b7          	lui	a1,0x4000
    80001184:	15fd                	addi	a1,a1,-1 # 3ffffff <_entry-0x7c000001>
    80001186:	05b2                	slli	a1,a1,0xc
    80001188:	fffff097          	auipc	ra,0xfffff
    8000118c:	510080e7          	jalr	1296(ra) # 80000698 <mappages>
    80001190:	02054863          	bltz	a0,800011c0 <proc_pagetable+0x66>
  if(mappages(pagetable, TRAPFRAME, PGSIZE,
    80001194:	4719                	li	a4,6
    80001196:	05893683          	ld	a3,88(s2)
    8000119a:	6605                	lui	a2,0x1
    8000119c:	020005b7          	lui	a1,0x2000
    800011a0:	15fd                	addi	a1,a1,-1 # 1ffffff <_entry-0x7e000001>
    800011a2:	05b6                	slli	a1,a1,0xd
    800011a4:	8526                	mv	a0,s1
    800011a6:	fffff097          	auipc	ra,0xfffff
    800011aa:	4f2080e7          	jalr	1266(ra) # 80000698 <mappages>
    800011ae:	02054163          	bltz	a0,800011d0 <proc_pagetable+0x76>
}
    800011b2:	8526                	mv	a0,s1
    800011b4:	60e2                	ld	ra,24(sp)
    800011b6:	6442                	ld	s0,16(sp)
    800011b8:	64a2                	ld	s1,8(sp)
    800011ba:	6902                	ld	s2,0(sp)
    800011bc:	6105                	addi	sp,sp,32
    800011be:	8082                	ret
    uvmfree(pagetable, 0);
    800011c0:	4581                	li	a1,0
    800011c2:	8526                	mv	a0,s1
    800011c4:	00000097          	auipc	ra,0x0
    800011c8:	986080e7          	jalr	-1658(ra) # 80000b4a <uvmfree>
    return 0;
    800011cc:	4481                	li	s1,0
    800011ce:	b7d5                	j	800011b2 <proc_pagetable+0x58>
    uvmunmap(pagetable, TRAMPOLINE, 1, 0);
    800011d0:	4681                	li	a3,0
    800011d2:	4605                	li	a2,1
    800011d4:	040005b7          	lui	a1,0x4000
    800011d8:	15fd                	addi	a1,a1,-1 # 3ffffff <_entry-0x7c000001>
    800011da:	05b2                	slli	a1,a1,0xc
    800011dc:	8526                	mv	a0,s1
    800011de:	fffff097          	auipc	ra,0xfffff
    800011e2:	680080e7          	jalr	1664(ra) # 8000085e <uvmunmap>
    uvmfree(pagetable, 0);
    800011e6:	4581                	li	a1,0
    800011e8:	8526                	mv	a0,s1
    800011ea:	00000097          	auipc	ra,0x0
    800011ee:	960080e7          	jalr	-1696(ra) # 80000b4a <uvmfree>
    return 0;
    800011f2:	4481                	li	s1,0
    800011f4:	bf7d                	j	800011b2 <proc_pagetable+0x58>

00000000800011f6 <proc_freepagetable>:
{
    800011f6:	1101                	addi	sp,sp,-32
    800011f8:	ec06                	sd	ra,24(sp)
    800011fa:	e822                	sd	s0,16(sp)
    800011fc:	e426                	sd	s1,8(sp)
    800011fe:	e04a                	sd	s2,0(sp)
    80001200:	1000                	addi	s0,sp,32
    80001202:	84aa                	mv	s1,a0
    80001204:	892e                	mv	s2,a1
  uvmunmap(pagetable, TRAMPOLINE, 1, 0);
    80001206:	4681                	li	a3,0
    80001208:	4605                	li	a2,1
    8000120a:	040005b7          	lui	a1,0x4000
    8000120e:	15fd                	addi	a1,a1,-1 # 3ffffff <_entry-0x7c000001>
    80001210:	05b2                	slli	a1,a1,0xc
    80001212:	fffff097          	auipc	ra,0xfffff
    80001216:	64c080e7          	jalr	1612(ra) # 8000085e <uvmunmap>
  uvmunmap(pagetable, TRAPFRAME, 1, 0);
    8000121a:	4681                	li	a3,0
    8000121c:	4605                	li	a2,1
    8000121e:	020005b7          	lui	a1,0x2000
    80001222:	15fd                	addi	a1,a1,-1 # 1ffffff <_entry-0x7e000001>
    80001224:	05b6                	slli	a1,a1,0xd
    80001226:	8526                	mv	a0,s1
    80001228:	fffff097          	auipc	ra,0xfffff
    8000122c:	636080e7          	jalr	1590(ra) # 8000085e <uvmunmap>
  uvmfree(pagetable, sz);
    80001230:	85ca                	mv	a1,s2
    80001232:	8526                	mv	a0,s1
    80001234:	00000097          	auipc	ra,0x0
    80001238:	916080e7          	jalr	-1770(ra) # 80000b4a <uvmfree>
}
    8000123c:	60e2                	ld	ra,24(sp)
    8000123e:	6442                	ld	s0,16(sp)
    80001240:	64a2                	ld	s1,8(sp)
    80001242:	6902                	ld	s2,0(sp)
    80001244:	6105                	addi	sp,sp,32
    80001246:	8082                	ret

0000000080001248 <freeproc>:
{
    80001248:	1101                	addi	sp,sp,-32
    8000124a:	ec06                	sd	ra,24(sp)
    8000124c:	e822                	sd	s0,16(sp)
    8000124e:	e426                	sd	s1,8(sp)
    80001250:	1000                	addi	s0,sp,32
    80001252:	84aa                	mv	s1,a0
  if(p->trapframe)
    80001254:	6d28                	ld	a0,88(a0)
    80001256:	c509                	beqz	a0,80001260 <freeproc+0x18>
    kfree((void*)p->trapframe);
    80001258:	fffff097          	auipc	ra,0xfffff
    8000125c:	e5c080e7          	jalr	-420(ra) # 800000b4 <kfree>
  p->trapframe = 0;
    80001260:	0404bc23          	sd	zero,88(s1)
  if(p->pagetable)
    80001264:	68a8                	ld	a0,80(s1)
    80001266:	c511                	beqz	a0,80001272 <freeproc+0x2a>
    proc_freepagetable(p->pagetable, p->sz);
    80001268:	64ac                	ld	a1,72(s1)
    8000126a:	00000097          	auipc	ra,0x0
    8000126e:	f8c080e7          	jalr	-116(ra) # 800011f6 <proc_freepagetable>
  p->pagetable = 0;
    80001272:	0404b823          	sd	zero,80(s1)
  p->sz = 0;
    80001276:	0404b423          	sd	zero,72(s1)
  p->pid = 0;
    8000127a:	0204a823          	sw	zero,48(s1)
  p->parent = 0;
    8000127e:	0204bc23          	sd	zero,56(s1)
  p->name[0] = 0;
    80001282:	14048c23          	sb	zero,344(s1)
  p->chan = 0;
    80001286:	0204b023          	sd	zero,32(s1)
  p->killed = 0;
    8000128a:	0204a423          	sw	zero,40(s1)
  p->xstate = 0;
    8000128e:	0204a623          	sw	zero,44(s1)
  p->state = UNUSED;
    80001292:	0004ac23          	sw	zero,24(s1)
}
    80001296:	60e2                	ld	ra,24(sp)
    80001298:	6442                	ld	s0,16(sp)
    8000129a:	64a2                	ld	s1,8(sp)
    8000129c:	6105                	addi	sp,sp,32
    8000129e:	8082                	ret

00000000800012a0 <allocproc>:
{
    800012a0:	1101                	addi	sp,sp,-32
    800012a2:	ec06                	sd	ra,24(sp)
    800012a4:	e822                	sd	s0,16(sp)
    800012a6:	e426                	sd	s1,8(sp)
    800012a8:	e04a                	sd	s2,0(sp)
    800012aa:	1000                	addi	s0,sp,32
  for(p = proc; p < &proc[NPROC]; p++) {
    800012ac:	00248497          	auipc	s1,0x248
    800012b0:	20c48493          	addi	s1,s1,524 # 802494b8 <proc>
    800012b4:	0024e917          	auipc	s2,0x24e
    800012b8:	c0490913          	addi	s2,s2,-1020 # 8024eeb8 <tickslock>
    acquire(&p->lock);
    800012bc:	8526                	mv	a0,s1
    800012be:	00005097          	auipc	ra,0x5
    800012c2:	1d4080e7          	jalr	468(ra) # 80006492 <acquire>
    if(p->state == UNUSED) {
    800012c6:	4c9c                	lw	a5,24(s1)
    800012c8:	cf81                	beqz	a5,800012e0 <allocproc+0x40>
      release(&p->lock);
    800012ca:	8526                	mv	a0,s1
    800012cc:	00005097          	auipc	ra,0x5
    800012d0:	276080e7          	jalr	630(ra) # 80006542 <release>
  for(p = proc; p < &proc[NPROC]; p++) {
    800012d4:	16848493          	addi	s1,s1,360
    800012d8:	ff2492e3          	bne	s1,s2,800012bc <allocproc+0x1c>
  return 0;
    800012dc:	4481                	li	s1,0
    800012de:	a889                	j	80001330 <allocproc+0x90>
  p->pid = allocpid();
    800012e0:	00000097          	auipc	ra,0x0
    800012e4:	e34080e7          	jalr	-460(ra) # 80001114 <allocpid>
    800012e8:	d888                	sw	a0,48(s1)
  p->state = USED;
    800012ea:	4785                	li	a5,1
    800012ec:	cc9c                	sw	a5,24(s1)
  if((p->trapframe = (struct trapframe *)kalloc()) == 0){
    800012ee:	fffff097          	auipc	ra,0xfffff
    800012f2:	f30080e7          	jalr	-208(ra) # 8000021e <kalloc>
    800012f6:	892a                	mv	s2,a0
    800012f8:	eca8                	sd	a0,88(s1)
    800012fa:	c131                	beqz	a0,8000133e <allocproc+0x9e>
  p->pagetable = proc_pagetable(p);
    800012fc:	8526                	mv	a0,s1
    800012fe:	00000097          	auipc	ra,0x0
    80001302:	e5c080e7          	jalr	-420(ra) # 8000115a <proc_pagetable>
    80001306:	892a                	mv	s2,a0
    80001308:	e8a8                	sd	a0,80(s1)
  if(p->pagetable == 0){
    8000130a:	c531                	beqz	a0,80001356 <allocproc+0xb6>
  memset(&p->context, 0, sizeof(p->context));
    8000130c:	07000613          	li	a2,112
    80001310:	4581                	li	a1,0
    80001312:	06048513          	addi	a0,s1,96
    80001316:	fffff097          	auipc	ra,0xfffff
    8000131a:	fa2080e7          	jalr	-94(ra) # 800002b8 <memset>
  p->context.ra = (uint64)forkret;
    8000131e:	00000797          	auipc	a5,0x0
    80001322:	db078793          	addi	a5,a5,-592 # 800010ce <forkret>
    80001326:	f0bc                	sd	a5,96(s1)
  p->context.sp = p->kstack + PGSIZE;
    80001328:	60bc                	ld	a5,64(s1)
    8000132a:	6705                	lui	a4,0x1
    8000132c:	97ba                	add	a5,a5,a4
    8000132e:	f4bc                	sd	a5,104(s1)
}
    80001330:	8526                	mv	a0,s1
    80001332:	60e2                	ld	ra,24(sp)
    80001334:	6442                	ld	s0,16(sp)
    80001336:	64a2                	ld	s1,8(sp)
    80001338:	6902                	ld	s2,0(sp)
    8000133a:	6105                	addi	sp,sp,32
    8000133c:	8082                	ret
    freeproc(p);
    8000133e:	8526                	mv	a0,s1
    80001340:	00000097          	auipc	ra,0x0
    80001344:	f08080e7          	jalr	-248(ra) # 80001248 <freeproc>
    release(&p->lock);
    80001348:	8526                	mv	a0,s1
    8000134a:	00005097          	auipc	ra,0x5
    8000134e:	1f8080e7          	jalr	504(ra) # 80006542 <release>
    return 0;
    80001352:	84ca                	mv	s1,s2
    80001354:	bff1                	j	80001330 <allocproc+0x90>
    freeproc(p);
    80001356:	8526                	mv	a0,s1
    80001358:	00000097          	auipc	ra,0x0
    8000135c:	ef0080e7          	jalr	-272(ra) # 80001248 <freeproc>
    release(&p->lock);
    80001360:	8526                	mv	a0,s1
    80001362:	00005097          	auipc	ra,0x5
    80001366:	1e0080e7          	jalr	480(ra) # 80006542 <release>
    return 0;
    8000136a:	84ca                	mv	s1,s2
    8000136c:	b7d1                	j	80001330 <allocproc+0x90>

000000008000136e <userinit>:
{
    8000136e:	1101                	addi	sp,sp,-32
    80001370:	ec06                	sd	ra,24(sp)
    80001372:	e822                	sd	s0,16(sp)
    80001374:	e426                	sd	s1,8(sp)
    80001376:	1000                	addi	s0,sp,32
  p = allocproc();
    80001378:	00000097          	auipc	ra,0x0
    8000137c:	f28080e7          	jalr	-216(ra) # 800012a0 <allocproc>
    80001380:	84aa                	mv	s1,a0
  initproc = p;
    80001382:	00008797          	auipc	a5,0x8
    80001386:	c8a7b723          	sd	a0,-882(a5) # 80009010 <initproc>
  uvminit(p->pagetable, initcode, sizeof(initcode));
    8000138a:	03400613          	li	a2,52
    8000138e:	00007597          	auipc	a1,0x7
    80001392:	4a258593          	addi	a1,a1,1186 # 80008830 <initcode>
    80001396:	6928                	ld	a0,80(a0)
    80001398:	fffff097          	auipc	ra,0xfffff
    8000139c:	5c8080e7          	jalr	1480(ra) # 80000960 <uvminit>
  p->sz = PGSIZE;
    800013a0:	6785                	lui	a5,0x1
    800013a2:	e4bc                	sd	a5,72(s1)
  p->trapframe->epc = 0;      // user program counter
    800013a4:	6cb8                	ld	a4,88(s1)
    800013a6:	00073c23          	sd	zero,24(a4) # 1018 <_entry-0x7fffefe8>
  p->trapframe->sp = PGSIZE;  // user stack pointer
    800013aa:	6cb8                	ld	a4,88(s1)
    800013ac:	fb1c                	sd	a5,48(a4)
  safestrcpy(p->name, "initcode", sizeof(p->name));
    800013ae:	4641                	li	a2,16
    800013b0:	00007597          	auipc	a1,0x7
    800013b4:	de058593          	addi	a1,a1,-544 # 80008190 <etext+0x190>
    800013b8:	15848513          	addi	a0,s1,344
    800013bc:	fffff097          	auipc	ra,0xfffff
    800013c0:	052080e7          	jalr	82(ra) # 8000040e <safestrcpy>
  p->cwd = namei("/");
    800013c4:	00007517          	auipc	a0,0x7
    800013c8:	ddc50513          	addi	a0,a0,-548 # 800081a0 <etext+0x1a0>
    800013cc:	00002097          	auipc	ra,0x2
    800013d0:	17a080e7          	jalr	378(ra) # 80003546 <namei>
    800013d4:	14a4b823          	sd	a0,336(s1)
  p->state = RUNNABLE;
    800013d8:	478d                	li	a5,3
    800013da:	cc9c                	sw	a5,24(s1)
  release(&p->lock);
    800013dc:	8526                	mv	a0,s1
    800013de:	00005097          	auipc	ra,0x5
    800013e2:	164080e7          	jalr	356(ra) # 80006542 <release>
}
    800013e6:	60e2                	ld	ra,24(sp)
    800013e8:	6442                	ld	s0,16(sp)
    800013ea:	64a2                	ld	s1,8(sp)
    800013ec:	6105                	addi	sp,sp,32
    800013ee:	8082                	ret

00000000800013f0 <growproc>:
{
    800013f0:	1101                	addi	sp,sp,-32
    800013f2:	ec06                	sd	ra,24(sp)
    800013f4:	e822                	sd	s0,16(sp)
    800013f6:	e426                	sd	s1,8(sp)
    800013f8:	e04a                	sd	s2,0(sp)
    800013fa:	1000                	addi	s0,sp,32
    800013fc:	84aa                	mv	s1,a0
  struct proc *p = myproc();
    800013fe:	00000097          	auipc	ra,0x0
    80001402:	c98080e7          	jalr	-872(ra) # 80001096 <myproc>
    80001406:	892a                	mv	s2,a0
  sz = p->sz;
    80001408:	652c                	ld	a1,72(a0)
    8000140a:	0005879b          	sext.w	a5,a1
  if(n > 0){
    8000140e:	00904f63          	bgtz	s1,8000142c <growproc+0x3c>
  } else if(n < 0){
    80001412:	0204cd63          	bltz	s1,8000144c <growproc+0x5c>
  p->sz = sz;
    80001416:	1782                	slli	a5,a5,0x20
    80001418:	9381                	srli	a5,a5,0x20
    8000141a:	04f93423          	sd	a5,72(s2)
  return 0;
    8000141e:	4501                	li	a0,0
}
    80001420:	60e2                	ld	ra,24(sp)
    80001422:	6442                	ld	s0,16(sp)
    80001424:	64a2                	ld	s1,8(sp)
    80001426:	6902                	ld	s2,0(sp)
    80001428:	6105                	addi	sp,sp,32
    8000142a:	8082                	ret
    if((sz = uvmalloc(p->pagetable, sz, sz + n)) == 0) {
    8000142c:	00f4863b          	addw	a2,s1,a5
    80001430:	1602                	slli	a2,a2,0x20
    80001432:	9201                	srli	a2,a2,0x20
    80001434:	1582                	slli	a1,a1,0x20
    80001436:	9181                	srli	a1,a1,0x20
    80001438:	6928                	ld	a0,80(a0)
    8000143a:	fffff097          	auipc	ra,0xfffff
    8000143e:	5e0080e7          	jalr	1504(ra) # 80000a1a <uvmalloc>
    80001442:	0005079b          	sext.w	a5,a0
    80001446:	fbe1                	bnez	a5,80001416 <growproc+0x26>
      return -1;
    80001448:	557d                	li	a0,-1
    8000144a:	bfd9                	j	80001420 <growproc+0x30>
    sz = uvmdealloc(p->pagetable, sz, sz + n);
    8000144c:	00f4863b          	addw	a2,s1,a5
    80001450:	1602                	slli	a2,a2,0x20
    80001452:	9201                	srli	a2,a2,0x20
    80001454:	1582                	slli	a1,a1,0x20
    80001456:	9181                	srli	a1,a1,0x20
    80001458:	6928                	ld	a0,80(a0)
    8000145a:	fffff097          	auipc	ra,0xfffff
    8000145e:	578080e7          	jalr	1400(ra) # 800009d2 <uvmdealloc>
    80001462:	0005079b          	sext.w	a5,a0
    80001466:	bf45                	j	80001416 <growproc+0x26>

0000000080001468 <fork>:
{
    80001468:	7139                	addi	sp,sp,-64
    8000146a:	fc06                	sd	ra,56(sp)
    8000146c:	f822                	sd	s0,48(sp)
    8000146e:	f04a                	sd	s2,32(sp)
    80001470:	e456                	sd	s5,8(sp)
    80001472:	0080                	addi	s0,sp,64
  struct proc *p = myproc();
    80001474:	00000097          	auipc	ra,0x0
    80001478:	c22080e7          	jalr	-990(ra) # 80001096 <myproc>
    8000147c:	8aaa                	mv	s5,a0
  if((np = allocproc()) == 0){
    8000147e:	00000097          	auipc	ra,0x0
    80001482:	e22080e7          	jalr	-478(ra) # 800012a0 <allocproc>
    80001486:	12050063          	beqz	a0,800015a6 <fork+0x13e>
    8000148a:	e852                	sd	s4,16(sp)
    8000148c:	8a2a                	mv	s4,a0
  if(uvmcopy(p->pagetable, np->pagetable, p->sz) < 0){
    8000148e:	048ab603          	ld	a2,72(s5)
    80001492:	692c                	ld	a1,80(a0)
    80001494:	050ab503          	ld	a0,80(s5)
    80001498:	fffff097          	auipc	ra,0xfffff
    8000149c:	6ec080e7          	jalr	1772(ra) # 80000b84 <uvmcopy>
    800014a0:	04054a63          	bltz	a0,800014f4 <fork+0x8c>
    800014a4:	f426                	sd	s1,40(sp)
    800014a6:	ec4e                	sd	s3,24(sp)
  np->sz = p->sz;
    800014a8:	048ab783          	ld	a5,72(s5)
    800014ac:	04fa3423          	sd	a5,72(s4)
  *(np->trapframe) = *(p->trapframe);
    800014b0:	058ab683          	ld	a3,88(s5)
    800014b4:	87b6                	mv	a5,a3
    800014b6:	058a3703          	ld	a4,88(s4)
    800014ba:	12068693          	addi	a3,a3,288
    800014be:	0007b803          	ld	a6,0(a5) # 1000 <_entry-0x7ffff000>
    800014c2:	6788                	ld	a0,8(a5)
    800014c4:	6b8c                	ld	a1,16(a5)
    800014c6:	6f90                	ld	a2,24(a5)
    800014c8:	01073023          	sd	a6,0(a4)
    800014cc:	e708                	sd	a0,8(a4)
    800014ce:	eb0c                	sd	a1,16(a4)
    800014d0:	ef10                	sd	a2,24(a4)
    800014d2:	02078793          	addi	a5,a5,32
    800014d6:	02070713          	addi	a4,a4,32
    800014da:	fed792e3          	bne	a5,a3,800014be <fork+0x56>
  np->trapframe->a0 = 0;
    800014de:	058a3783          	ld	a5,88(s4)
    800014e2:	0607b823          	sd	zero,112(a5)
  for(i = 0; i < NOFILE; i++)
    800014e6:	0d0a8493          	addi	s1,s5,208
    800014ea:	0d0a0913          	addi	s2,s4,208
    800014ee:	150a8993          	addi	s3,s5,336
    800014f2:	a015                	j	80001516 <fork+0xae>
    freeproc(np);
    800014f4:	8552                	mv	a0,s4
    800014f6:	00000097          	auipc	ra,0x0
    800014fa:	d52080e7          	jalr	-686(ra) # 80001248 <freeproc>
    release(&np->lock);
    800014fe:	8552                	mv	a0,s4
    80001500:	00005097          	auipc	ra,0x5
    80001504:	042080e7          	jalr	66(ra) # 80006542 <release>
    return -1;
    80001508:	597d                	li	s2,-1
    8000150a:	6a42                	ld	s4,16(sp)
    8000150c:	a071                	j	80001598 <fork+0x130>
  for(i = 0; i < NOFILE; i++)
    8000150e:	04a1                	addi	s1,s1,8
    80001510:	0921                	addi	s2,s2,8
    80001512:	01348b63          	beq	s1,s3,80001528 <fork+0xc0>
    if(p->ofile[i])
    80001516:	6088                	ld	a0,0(s1)
    80001518:	d97d                	beqz	a0,8000150e <fork+0xa6>
      np->ofile[i] = filedup(p->ofile[i]);
    8000151a:	00002097          	auipc	ra,0x2
    8000151e:	6b0080e7          	jalr	1712(ra) # 80003bca <filedup>
    80001522:	00a93023          	sd	a0,0(s2)
    80001526:	b7e5                	j	8000150e <fork+0xa6>
  np->cwd = idup(p->cwd);
    80001528:	150ab503          	ld	a0,336(s5)
    8000152c:	00001097          	auipc	ra,0x1
    80001530:	7f0080e7          	jalr	2032(ra) # 80002d1c <idup>
    80001534:	14aa3823          	sd	a0,336(s4)
  safestrcpy(np->name, p->name, sizeof(p->name));
    80001538:	4641                	li	a2,16
    8000153a:	158a8593          	addi	a1,s5,344
    8000153e:	158a0513          	addi	a0,s4,344
    80001542:	fffff097          	auipc	ra,0xfffff
    80001546:	ecc080e7          	jalr	-308(ra) # 8000040e <safestrcpy>
  pid = np->pid;
    8000154a:	030a2903          	lw	s2,48(s4)
  release(&np->lock);
    8000154e:	8552                	mv	a0,s4
    80001550:	00005097          	auipc	ra,0x5
    80001554:	ff2080e7          	jalr	-14(ra) # 80006542 <release>
  acquire(&wait_lock);
    80001558:	00248497          	auipc	s1,0x248
    8000155c:	b4848493          	addi	s1,s1,-1208 # 802490a0 <wait_lock>
    80001560:	8526                	mv	a0,s1
    80001562:	00005097          	auipc	ra,0x5
    80001566:	f30080e7          	jalr	-208(ra) # 80006492 <acquire>
  np->parent = p;
    8000156a:	035a3c23          	sd	s5,56(s4)
  release(&wait_lock);
    8000156e:	8526                	mv	a0,s1
    80001570:	00005097          	auipc	ra,0x5
    80001574:	fd2080e7          	jalr	-46(ra) # 80006542 <release>
  acquire(&np->lock);
    80001578:	8552                	mv	a0,s4
    8000157a:	00005097          	auipc	ra,0x5
    8000157e:	f18080e7          	jalr	-232(ra) # 80006492 <acquire>
  np->state = RUNNABLE;
    80001582:	478d                	li	a5,3
    80001584:	00fa2c23          	sw	a5,24(s4)
  release(&np->lock);
    80001588:	8552                	mv	a0,s4
    8000158a:	00005097          	auipc	ra,0x5
    8000158e:	fb8080e7          	jalr	-72(ra) # 80006542 <release>
  return pid;
    80001592:	74a2                	ld	s1,40(sp)
    80001594:	69e2                	ld	s3,24(sp)
    80001596:	6a42                	ld	s4,16(sp)
}
    80001598:	854a                	mv	a0,s2
    8000159a:	70e2                	ld	ra,56(sp)
    8000159c:	7442                	ld	s0,48(sp)
    8000159e:	7902                	ld	s2,32(sp)
    800015a0:	6aa2                	ld	s5,8(sp)
    800015a2:	6121                	addi	sp,sp,64
    800015a4:	8082                	ret
    return -1;
    800015a6:	597d                	li	s2,-1
    800015a8:	bfc5                	j	80001598 <fork+0x130>

00000000800015aa <scheduler>:
{
    800015aa:	7139                	addi	sp,sp,-64
    800015ac:	fc06                	sd	ra,56(sp)
    800015ae:	f822                	sd	s0,48(sp)
    800015b0:	f426                	sd	s1,40(sp)
    800015b2:	f04a                	sd	s2,32(sp)
    800015b4:	ec4e                	sd	s3,24(sp)
    800015b6:	e852                	sd	s4,16(sp)
    800015b8:	e456                	sd	s5,8(sp)
    800015ba:	e05a                	sd	s6,0(sp)
    800015bc:	0080                	addi	s0,sp,64
    800015be:	8792                	mv	a5,tp
  int id = r_tp();
    800015c0:	2781                	sext.w	a5,a5
  c->proc = 0;
    800015c2:	00779a93          	slli	s5,a5,0x7
    800015c6:	00248717          	auipc	a4,0x248
    800015ca:	ac270713          	addi	a4,a4,-1342 # 80249088 <pid_lock>
    800015ce:	9756                	add	a4,a4,s5
    800015d0:	02073823          	sd	zero,48(a4)
        swtch(&c->context, &p->context);
    800015d4:	00248717          	auipc	a4,0x248
    800015d8:	aec70713          	addi	a4,a4,-1300 # 802490c0 <cpus+0x8>
    800015dc:	9aba                	add	s5,s5,a4
      if(p->state == RUNNABLE) {
    800015de:	498d                	li	s3,3
        p->state = RUNNING;
    800015e0:	4b11                	li	s6,4
        c->proc = p;
    800015e2:	079e                	slli	a5,a5,0x7
    800015e4:	00248a17          	auipc	s4,0x248
    800015e8:	aa4a0a13          	addi	s4,s4,-1372 # 80249088 <pid_lock>
    800015ec:	9a3e                	add	s4,s4,a5
  asm volatile("csrr %0, sstatus" : "=r" (x) );
    800015ee:	100027f3          	csrr	a5,sstatus
  w_sstatus(r_sstatus() | SSTATUS_SIE);
    800015f2:	0027e793          	ori	a5,a5,2
  asm volatile("csrw sstatus, %0" : : "r" (x));
    800015f6:	10079073          	csrw	sstatus,a5
    for(p = proc; p < &proc[NPROC]; p++) {
    800015fa:	00248497          	auipc	s1,0x248
    800015fe:	ebe48493          	addi	s1,s1,-322 # 802494b8 <proc>
    80001602:	0024e917          	auipc	s2,0x24e
    80001606:	8b690913          	addi	s2,s2,-1866 # 8024eeb8 <tickslock>
    8000160a:	a811                	j	8000161e <scheduler+0x74>
      release(&p->lock);
    8000160c:	8526                	mv	a0,s1
    8000160e:	00005097          	auipc	ra,0x5
    80001612:	f34080e7          	jalr	-204(ra) # 80006542 <release>
    for(p = proc; p < &proc[NPROC]; p++) {
    80001616:	16848493          	addi	s1,s1,360
    8000161a:	fd248ae3          	beq	s1,s2,800015ee <scheduler+0x44>
      acquire(&p->lock);
    8000161e:	8526                	mv	a0,s1
    80001620:	00005097          	auipc	ra,0x5
    80001624:	e72080e7          	jalr	-398(ra) # 80006492 <acquire>
      if(p->state == RUNNABLE) {
    80001628:	4c9c                	lw	a5,24(s1)
    8000162a:	ff3791e3          	bne	a5,s3,8000160c <scheduler+0x62>
        p->state = RUNNING;
    8000162e:	0164ac23          	sw	s6,24(s1)
        c->proc = p;
    80001632:	029a3823          	sd	s1,48(s4)
        swtch(&c->context, &p->context);
    80001636:	06048593          	addi	a1,s1,96
    8000163a:	8556                	mv	a0,s5
    8000163c:	00000097          	auipc	ra,0x0
    80001640:	61a080e7          	jalr	1562(ra) # 80001c56 <swtch>
        c->proc = 0;
    80001644:	020a3823          	sd	zero,48(s4)
    80001648:	b7d1                	j	8000160c <scheduler+0x62>

000000008000164a <sched>:
{
    8000164a:	7179                	addi	sp,sp,-48
    8000164c:	f406                	sd	ra,40(sp)
    8000164e:	f022                	sd	s0,32(sp)
    80001650:	ec26                	sd	s1,24(sp)
    80001652:	e84a                	sd	s2,16(sp)
    80001654:	e44e                	sd	s3,8(sp)
    80001656:	1800                	addi	s0,sp,48
  struct proc *p = myproc();
    80001658:	00000097          	auipc	ra,0x0
    8000165c:	a3e080e7          	jalr	-1474(ra) # 80001096 <myproc>
    80001660:	84aa                	mv	s1,a0
  if(!holding(&p->lock))
    80001662:	00005097          	auipc	ra,0x5
    80001666:	db6080e7          	jalr	-586(ra) # 80006418 <holding>
    8000166a:	c93d                	beqz	a0,800016e0 <sched+0x96>
  asm volatile("mv %0, tp" : "=r" (x) );
    8000166c:	8792                	mv	a5,tp
  if(mycpu()->noff != 1)
    8000166e:	2781                	sext.w	a5,a5
    80001670:	079e                	slli	a5,a5,0x7
    80001672:	00248717          	auipc	a4,0x248
    80001676:	a1670713          	addi	a4,a4,-1514 # 80249088 <pid_lock>
    8000167a:	97ba                	add	a5,a5,a4
    8000167c:	0a87a703          	lw	a4,168(a5)
    80001680:	4785                	li	a5,1
    80001682:	06f71763          	bne	a4,a5,800016f0 <sched+0xa6>
  if(p->state == RUNNING)
    80001686:	4c98                	lw	a4,24(s1)
    80001688:	4791                	li	a5,4
    8000168a:	06f70b63          	beq	a4,a5,80001700 <sched+0xb6>
  asm volatile("csrr %0, sstatus" : "=r" (x) );
    8000168e:	100027f3          	csrr	a5,sstatus
  return (x & SSTATUS_SIE) != 0;
    80001692:	8b89                	andi	a5,a5,2
  if(intr_get())
    80001694:	efb5                	bnez	a5,80001710 <sched+0xc6>
  asm volatile("mv %0, tp" : "=r" (x) );
    80001696:	8792                	mv	a5,tp
  intena = mycpu()->intena;
    80001698:	00248917          	auipc	s2,0x248
    8000169c:	9f090913          	addi	s2,s2,-1552 # 80249088 <pid_lock>
    800016a0:	2781                	sext.w	a5,a5
    800016a2:	079e                	slli	a5,a5,0x7
    800016a4:	97ca                	add	a5,a5,s2
    800016a6:	0ac7a983          	lw	s3,172(a5)
    800016aa:	8792                	mv	a5,tp
  swtch(&p->context, &mycpu()->context);
    800016ac:	2781                	sext.w	a5,a5
    800016ae:	079e                	slli	a5,a5,0x7
    800016b0:	00248597          	auipc	a1,0x248
    800016b4:	a1058593          	addi	a1,a1,-1520 # 802490c0 <cpus+0x8>
    800016b8:	95be                	add	a1,a1,a5
    800016ba:	06048513          	addi	a0,s1,96
    800016be:	00000097          	auipc	ra,0x0
    800016c2:	598080e7          	jalr	1432(ra) # 80001c56 <swtch>
    800016c6:	8792                	mv	a5,tp
  mycpu()->intena = intena;
    800016c8:	2781                	sext.w	a5,a5
    800016ca:	079e                	slli	a5,a5,0x7
    800016cc:	993e                	add	s2,s2,a5
    800016ce:	0b392623          	sw	s3,172(s2)
}
    800016d2:	70a2                	ld	ra,40(sp)
    800016d4:	7402                	ld	s0,32(sp)
    800016d6:	64e2                	ld	s1,24(sp)
    800016d8:	6942                	ld	s2,16(sp)
    800016da:	69a2                	ld	s3,8(sp)
    800016dc:	6145                	addi	sp,sp,48
    800016de:	8082                	ret
    panic("sched p->lock");
    800016e0:	00007517          	auipc	a0,0x7
    800016e4:	ac850513          	addi	a0,a0,-1336 # 800081a8 <etext+0x1a8>
    800016e8:	00005097          	auipc	ra,0x5
    800016ec:	82a080e7          	jalr	-2006(ra) # 80005f12 <panic>
    panic("sched locks");
    800016f0:	00007517          	auipc	a0,0x7
    800016f4:	ac850513          	addi	a0,a0,-1336 # 800081b8 <etext+0x1b8>
    800016f8:	00005097          	auipc	ra,0x5
    800016fc:	81a080e7          	jalr	-2022(ra) # 80005f12 <panic>
    panic("sched running");
    80001700:	00007517          	auipc	a0,0x7
    80001704:	ac850513          	addi	a0,a0,-1336 # 800081c8 <etext+0x1c8>
    80001708:	00005097          	auipc	ra,0x5
    8000170c:	80a080e7          	jalr	-2038(ra) # 80005f12 <panic>
    panic("sched interruptible");
    80001710:	00007517          	auipc	a0,0x7
    80001714:	ac850513          	addi	a0,a0,-1336 # 800081d8 <etext+0x1d8>
    80001718:	00004097          	auipc	ra,0x4
    8000171c:	7fa080e7          	jalr	2042(ra) # 80005f12 <panic>

0000000080001720 <yield>:
{
    80001720:	1101                	addi	sp,sp,-32
    80001722:	ec06                	sd	ra,24(sp)
    80001724:	e822                	sd	s0,16(sp)
    80001726:	e426                	sd	s1,8(sp)
    80001728:	1000                	addi	s0,sp,32
  struct proc *p = myproc();
    8000172a:	00000097          	auipc	ra,0x0
    8000172e:	96c080e7          	jalr	-1684(ra) # 80001096 <myproc>
    80001732:	84aa                	mv	s1,a0
  acquire(&p->lock);
    80001734:	00005097          	auipc	ra,0x5
    80001738:	d5e080e7          	jalr	-674(ra) # 80006492 <acquire>
  p->state = RUNNABLE;
    8000173c:	478d                	li	a5,3
    8000173e:	cc9c                	sw	a5,24(s1)
  sched();
    80001740:	00000097          	auipc	ra,0x0
    80001744:	f0a080e7          	jalr	-246(ra) # 8000164a <sched>
  release(&p->lock);
    80001748:	8526                	mv	a0,s1
    8000174a:	00005097          	auipc	ra,0x5
    8000174e:	df8080e7          	jalr	-520(ra) # 80006542 <release>
}
    80001752:	60e2                	ld	ra,24(sp)
    80001754:	6442                	ld	s0,16(sp)
    80001756:	64a2                	ld	s1,8(sp)
    80001758:	6105                	addi	sp,sp,32
    8000175a:	8082                	ret

000000008000175c <sleep>:

// Atomically release lock and sleep on chan.
// Reacquires lock when awakened.
void
sleep(void *chan, struct spinlock *lk)
{
    8000175c:	7179                	addi	sp,sp,-48
    8000175e:	f406                	sd	ra,40(sp)
    80001760:	f022                	sd	s0,32(sp)
    80001762:	ec26                	sd	s1,24(sp)
    80001764:	e84a                	sd	s2,16(sp)
    80001766:	e44e                	sd	s3,8(sp)
    80001768:	1800                	addi	s0,sp,48
    8000176a:	89aa                	mv	s3,a0
    8000176c:	892e                	mv	s2,a1
  struct proc *p = myproc();
    8000176e:	00000097          	auipc	ra,0x0
    80001772:	928080e7          	jalr	-1752(ra) # 80001096 <myproc>
    80001776:	84aa                	mv	s1,a0
  // Once we hold p->lock, we can be
  // guaranteed that we won't miss any wakeup
  // (wakeup locks p->lock),
  // so it's okay to release lk.

  acquire(&p->lock);  //DOC: sleeplock1
    80001778:	00005097          	auipc	ra,0x5
    8000177c:	d1a080e7          	jalr	-742(ra) # 80006492 <acquire>
  release(lk);
    80001780:	854a                	mv	a0,s2
    80001782:	00005097          	auipc	ra,0x5
    80001786:	dc0080e7          	jalr	-576(ra) # 80006542 <release>

  // Go to sleep.
  p->chan = chan;
    8000178a:	0334b023          	sd	s3,32(s1)
  p->state = SLEEPING;
    8000178e:	4789                	li	a5,2
    80001790:	cc9c                	sw	a5,24(s1)

  sched();
    80001792:	00000097          	auipc	ra,0x0
    80001796:	eb8080e7          	jalr	-328(ra) # 8000164a <sched>

  // Tidy up.
  p->chan = 0;
    8000179a:	0204b023          	sd	zero,32(s1)

  // Reacquire original lock.
  release(&p->lock);
    8000179e:	8526                	mv	a0,s1
    800017a0:	00005097          	auipc	ra,0x5
    800017a4:	da2080e7          	jalr	-606(ra) # 80006542 <release>
  acquire(lk);
    800017a8:	854a                	mv	a0,s2
    800017aa:	00005097          	auipc	ra,0x5
    800017ae:	ce8080e7          	jalr	-792(ra) # 80006492 <acquire>
}
    800017b2:	70a2                	ld	ra,40(sp)
    800017b4:	7402                	ld	s0,32(sp)
    800017b6:	64e2                	ld	s1,24(sp)
    800017b8:	6942                	ld	s2,16(sp)
    800017ba:	69a2                	ld	s3,8(sp)
    800017bc:	6145                	addi	sp,sp,48
    800017be:	8082                	ret

00000000800017c0 <wait>:
{
    800017c0:	715d                	addi	sp,sp,-80
    800017c2:	e486                	sd	ra,72(sp)
    800017c4:	e0a2                	sd	s0,64(sp)
    800017c6:	fc26                	sd	s1,56(sp)
    800017c8:	f84a                	sd	s2,48(sp)
    800017ca:	f44e                	sd	s3,40(sp)
    800017cc:	f052                	sd	s4,32(sp)
    800017ce:	ec56                	sd	s5,24(sp)
    800017d0:	e85a                	sd	s6,16(sp)
    800017d2:	e45e                	sd	s7,8(sp)
    800017d4:	0880                	addi	s0,sp,80
    800017d6:	8b2a                	mv	s6,a0
  struct proc *p = myproc();
    800017d8:	00000097          	auipc	ra,0x0
    800017dc:	8be080e7          	jalr	-1858(ra) # 80001096 <myproc>
    800017e0:	892a                	mv	s2,a0
  acquire(&wait_lock);
    800017e2:	00248517          	auipc	a0,0x248
    800017e6:	8be50513          	addi	a0,a0,-1858 # 802490a0 <wait_lock>
    800017ea:	00005097          	auipc	ra,0x5
    800017ee:	ca8080e7          	jalr	-856(ra) # 80006492 <acquire>
        if(np->state == ZOMBIE){
    800017f2:	4a15                	li	s4,5
        havekids = 1;
    800017f4:	4a85                	li	s5,1
    for(np = proc; np < &proc[NPROC]; np++){
    800017f6:	0024d997          	auipc	s3,0x24d
    800017fa:	6c298993          	addi	s3,s3,1730 # 8024eeb8 <tickslock>
    sleep(p, &wait_lock);  //DOC: wait-sleep
    800017fe:	00248b97          	auipc	s7,0x248
    80001802:	8a2b8b93          	addi	s7,s7,-1886 # 802490a0 <wait_lock>
    80001806:	a875                	j	800018c2 <wait+0x102>
          pid = np->pid;
    80001808:	0304a983          	lw	s3,48(s1)
          if(addr != 0 && copyout(p->pagetable, addr, (char *)&np->xstate,
    8000180c:	000b0e63          	beqz	s6,80001828 <wait+0x68>
    80001810:	4691                	li	a3,4
    80001812:	02c48613          	addi	a2,s1,44
    80001816:	85da                	mv	a1,s6
    80001818:	05093503          	ld	a0,80(s2)
    8000181c:	fffff097          	auipc	ra,0xfffff
    80001820:	492080e7          	jalr	1170(ra) # 80000cae <copyout>
    80001824:	04054063          	bltz	a0,80001864 <wait+0xa4>
          freeproc(np);
    80001828:	8526                	mv	a0,s1
    8000182a:	00000097          	auipc	ra,0x0
    8000182e:	a1e080e7          	jalr	-1506(ra) # 80001248 <freeproc>
          release(&np->lock);
    80001832:	8526                	mv	a0,s1
    80001834:	00005097          	auipc	ra,0x5
    80001838:	d0e080e7          	jalr	-754(ra) # 80006542 <release>
          release(&wait_lock);
    8000183c:	00248517          	auipc	a0,0x248
    80001840:	86450513          	addi	a0,a0,-1948 # 802490a0 <wait_lock>
    80001844:	00005097          	auipc	ra,0x5
    80001848:	cfe080e7          	jalr	-770(ra) # 80006542 <release>
}
    8000184c:	854e                	mv	a0,s3
    8000184e:	60a6                	ld	ra,72(sp)
    80001850:	6406                	ld	s0,64(sp)
    80001852:	74e2                	ld	s1,56(sp)
    80001854:	7942                	ld	s2,48(sp)
    80001856:	79a2                	ld	s3,40(sp)
    80001858:	7a02                	ld	s4,32(sp)
    8000185a:	6ae2                	ld	s5,24(sp)
    8000185c:	6b42                	ld	s6,16(sp)
    8000185e:	6ba2                	ld	s7,8(sp)
    80001860:	6161                	addi	sp,sp,80
    80001862:	8082                	ret
            release(&np->lock);
    80001864:	8526                	mv	a0,s1
    80001866:	00005097          	auipc	ra,0x5
    8000186a:	cdc080e7          	jalr	-804(ra) # 80006542 <release>
            release(&wait_lock);
    8000186e:	00248517          	auipc	a0,0x248
    80001872:	83250513          	addi	a0,a0,-1998 # 802490a0 <wait_lock>
    80001876:	00005097          	auipc	ra,0x5
    8000187a:	ccc080e7          	jalr	-820(ra) # 80006542 <release>
            return -1;
    8000187e:	59fd                	li	s3,-1
    80001880:	b7f1                	j	8000184c <wait+0x8c>
    for(np = proc; np < &proc[NPROC]; np++){
    80001882:	16848493          	addi	s1,s1,360
    80001886:	03348463          	beq	s1,s3,800018ae <wait+0xee>
      if(np->parent == p){
    8000188a:	7c9c                	ld	a5,56(s1)
    8000188c:	ff279be3          	bne	a5,s2,80001882 <wait+0xc2>
        acquire(&np->lock);
    80001890:	8526                	mv	a0,s1
    80001892:	00005097          	auipc	ra,0x5
    80001896:	c00080e7          	jalr	-1024(ra) # 80006492 <acquire>
        if(np->state == ZOMBIE){
    8000189a:	4c9c                	lw	a5,24(s1)
    8000189c:	f74786e3          	beq	a5,s4,80001808 <wait+0x48>
        release(&np->lock);
    800018a0:	8526                	mv	a0,s1
    800018a2:	00005097          	auipc	ra,0x5
    800018a6:	ca0080e7          	jalr	-864(ra) # 80006542 <release>
        havekids = 1;
    800018aa:	8756                	mv	a4,s5
    800018ac:	bfd9                	j	80001882 <wait+0xc2>
    if(!havekids || p->killed){
    800018ae:	c305                	beqz	a4,800018ce <wait+0x10e>
    800018b0:	02892783          	lw	a5,40(s2)
    800018b4:	ef89                	bnez	a5,800018ce <wait+0x10e>
    sleep(p, &wait_lock);  //DOC: wait-sleep
    800018b6:	85de                	mv	a1,s7
    800018b8:	854a                	mv	a0,s2
    800018ba:	00000097          	auipc	ra,0x0
    800018be:	ea2080e7          	jalr	-350(ra) # 8000175c <sleep>
    havekids = 0;
    800018c2:	4701                	li	a4,0
    for(np = proc; np < &proc[NPROC]; np++){
    800018c4:	00248497          	auipc	s1,0x248
    800018c8:	bf448493          	addi	s1,s1,-1036 # 802494b8 <proc>
    800018cc:	bf7d                	j	8000188a <wait+0xca>
      release(&wait_lock);
    800018ce:	00247517          	auipc	a0,0x247
    800018d2:	7d250513          	addi	a0,a0,2002 # 802490a0 <wait_lock>
    800018d6:	00005097          	auipc	ra,0x5
    800018da:	c6c080e7          	jalr	-916(ra) # 80006542 <release>
      return -1;
    800018de:	59fd                	li	s3,-1
    800018e0:	b7b5                	j	8000184c <wait+0x8c>

00000000800018e2 <wakeup>:

// Wake up all processes sleeping on chan.
// Must be called without any p->lock.
void
wakeup(void *chan)
{
    800018e2:	7139                	addi	sp,sp,-64
    800018e4:	fc06                	sd	ra,56(sp)
    800018e6:	f822                	sd	s0,48(sp)
    800018e8:	f426                	sd	s1,40(sp)
    800018ea:	f04a                	sd	s2,32(sp)
    800018ec:	ec4e                	sd	s3,24(sp)
    800018ee:	e852                	sd	s4,16(sp)
    800018f0:	e456                	sd	s5,8(sp)
    800018f2:	0080                	addi	s0,sp,64
    800018f4:	8a2a                	mv	s4,a0
  struct proc *p;

  for(p = proc; p < &proc[NPROC]; p++) {
    800018f6:	00248497          	auipc	s1,0x248
    800018fa:	bc248493          	addi	s1,s1,-1086 # 802494b8 <proc>
    if(p != myproc()){
      acquire(&p->lock);
      if(p->state == SLEEPING && p->chan == chan) {
    800018fe:	4989                	li	s3,2
        p->state = RUNNABLE;
    80001900:	4a8d                	li	s5,3
  for(p = proc; p < &proc[NPROC]; p++) {
    80001902:	0024d917          	auipc	s2,0x24d
    80001906:	5b690913          	addi	s2,s2,1462 # 8024eeb8 <tickslock>
    8000190a:	a811                	j	8000191e <wakeup+0x3c>
      }
      release(&p->lock);
    8000190c:	8526                	mv	a0,s1
    8000190e:	00005097          	auipc	ra,0x5
    80001912:	c34080e7          	jalr	-972(ra) # 80006542 <release>
  for(p = proc; p < &proc[NPROC]; p++) {
    80001916:	16848493          	addi	s1,s1,360
    8000191a:	03248663          	beq	s1,s2,80001946 <wakeup+0x64>
    if(p != myproc()){
    8000191e:	fffff097          	auipc	ra,0xfffff
    80001922:	778080e7          	jalr	1912(ra) # 80001096 <myproc>
    80001926:	fea488e3          	beq	s1,a0,80001916 <wakeup+0x34>
      acquire(&p->lock);
    8000192a:	8526                	mv	a0,s1
    8000192c:	00005097          	auipc	ra,0x5
    80001930:	b66080e7          	jalr	-1178(ra) # 80006492 <acquire>
      if(p->state == SLEEPING && p->chan == chan) {
    80001934:	4c9c                	lw	a5,24(s1)
    80001936:	fd379be3          	bne	a5,s3,8000190c <wakeup+0x2a>
    8000193a:	709c                	ld	a5,32(s1)
    8000193c:	fd4798e3          	bne	a5,s4,8000190c <wakeup+0x2a>
        p->state = RUNNABLE;
    80001940:	0154ac23          	sw	s5,24(s1)
    80001944:	b7e1                	j	8000190c <wakeup+0x2a>
    }
  }
}
    80001946:	70e2                	ld	ra,56(sp)
    80001948:	7442                	ld	s0,48(sp)
    8000194a:	74a2                	ld	s1,40(sp)
    8000194c:	7902                	ld	s2,32(sp)
    8000194e:	69e2                	ld	s3,24(sp)
    80001950:	6a42                	ld	s4,16(sp)
    80001952:	6aa2                	ld	s5,8(sp)
    80001954:	6121                	addi	sp,sp,64
    80001956:	8082                	ret

0000000080001958 <reparent>:
{
    80001958:	7179                	addi	sp,sp,-48
    8000195a:	f406                	sd	ra,40(sp)
    8000195c:	f022                	sd	s0,32(sp)
    8000195e:	ec26                	sd	s1,24(sp)
    80001960:	e84a                	sd	s2,16(sp)
    80001962:	e44e                	sd	s3,8(sp)
    80001964:	e052                	sd	s4,0(sp)
    80001966:	1800                	addi	s0,sp,48
    80001968:	892a                	mv	s2,a0
  for(pp = proc; pp < &proc[NPROC]; pp++){
    8000196a:	00248497          	auipc	s1,0x248
    8000196e:	b4e48493          	addi	s1,s1,-1202 # 802494b8 <proc>
      pp->parent = initproc;
    80001972:	00007a17          	auipc	s4,0x7
    80001976:	69ea0a13          	addi	s4,s4,1694 # 80009010 <initproc>
  for(pp = proc; pp < &proc[NPROC]; pp++){
    8000197a:	0024d997          	auipc	s3,0x24d
    8000197e:	53e98993          	addi	s3,s3,1342 # 8024eeb8 <tickslock>
    80001982:	a029                	j	8000198c <reparent+0x34>
    80001984:	16848493          	addi	s1,s1,360
    80001988:	01348d63          	beq	s1,s3,800019a2 <reparent+0x4a>
    if(pp->parent == p){
    8000198c:	7c9c                	ld	a5,56(s1)
    8000198e:	ff279be3          	bne	a5,s2,80001984 <reparent+0x2c>
      pp->parent = initproc;
    80001992:	000a3503          	ld	a0,0(s4)
    80001996:	fc88                	sd	a0,56(s1)
      wakeup(initproc);
    80001998:	00000097          	auipc	ra,0x0
    8000199c:	f4a080e7          	jalr	-182(ra) # 800018e2 <wakeup>
    800019a0:	b7d5                	j	80001984 <reparent+0x2c>
}
    800019a2:	70a2                	ld	ra,40(sp)
    800019a4:	7402                	ld	s0,32(sp)
    800019a6:	64e2                	ld	s1,24(sp)
    800019a8:	6942                	ld	s2,16(sp)
    800019aa:	69a2                	ld	s3,8(sp)
    800019ac:	6a02                	ld	s4,0(sp)
    800019ae:	6145                	addi	sp,sp,48
    800019b0:	8082                	ret

00000000800019b2 <exit>:
{
    800019b2:	7179                	addi	sp,sp,-48
    800019b4:	f406                	sd	ra,40(sp)
    800019b6:	f022                	sd	s0,32(sp)
    800019b8:	ec26                	sd	s1,24(sp)
    800019ba:	e84a                	sd	s2,16(sp)
    800019bc:	e44e                	sd	s3,8(sp)
    800019be:	e052                	sd	s4,0(sp)
    800019c0:	1800                	addi	s0,sp,48
    800019c2:	8a2a                	mv	s4,a0
  struct proc *p = myproc();
    800019c4:	fffff097          	auipc	ra,0xfffff
    800019c8:	6d2080e7          	jalr	1746(ra) # 80001096 <myproc>
    800019cc:	89aa                	mv	s3,a0
  if(p == initproc)
    800019ce:	00007797          	auipc	a5,0x7
    800019d2:	6427b783          	ld	a5,1602(a5) # 80009010 <initproc>
    800019d6:	0d050493          	addi	s1,a0,208
    800019da:	15050913          	addi	s2,a0,336
    800019de:	00a79d63          	bne	a5,a0,800019f8 <exit+0x46>
    panic("init exiting");
    800019e2:	00007517          	auipc	a0,0x7
    800019e6:	80e50513          	addi	a0,a0,-2034 # 800081f0 <etext+0x1f0>
    800019ea:	00004097          	auipc	ra,0x4
    800019ee:	528080e7          	jalr	1320(ra) # 80005f12 <panic>
  for(int fd = 0; fd < NOFILE; fd++){
    800019f2:	04a1                	addi	s1,s1,8
    800019f4:	01248b63          	beq	s1,s2,80001a0a <exit+0x58>
    if(p->ofile[fd]){
    800019f8:	6088                	ld	a0,0(s1)
    800019fa:	dd65                	beqz	a0,800019f2 <exit+0x40>
      fileclose(f);
    800019fc:	00002097          	auipc	ra,0x2
    80001a00:	220080e7          	jalr	544(ra) # 80003c1c <fileclose>
      p->ofile[fd] = 0;
    80001a04:	0004b023          	sd	zero,0(s1)
    80001a08:	b7ed                	j	800019f2 <exit+0x40>
  begin_op();
    80001a0a:	00002097          	auipc	ra,0x2
    80001a0e:	d42080e7          	jalr	-702(ra) # 8000374c <begin_op>
  iput(p->cwd);
    80001a12:	1509b503          	ld	a0,336(s3)
    80001a16:	00001097          	auipc	ra,0x1
    80001a1a:	502080e7          	jalr	1282(ra) # 80002f18 <iput>
  end_op();
    80001a1e:	00002097          	auipc	ra,0x2
    80001a22:	da8080e7          	jalr	-600(ra) # 800037c6 <end_op>
  p->cwd = 0;
    80001a26:	1409b823          	sd	zero,336(s3)
  acquire(&wait_lock);
    80001a2a:	00247497          	auipc	s1,0x247
    80001a2e:	67648493          	addi	s1,s1,1654 # 802490a0 <wait_lock>
    80001a32:	8526                	mv	a0,s1
    80001a34:	00005097          	auipc	ra,0x5
    80001a38:	a5e080e7          	jalr	-1442(ra) # 80006492 <acquire>
  reparent(p);
    80001a3c:	854e                	mv	a0,s3
    80001a3e:	00000097          	auipc	ra,0x0
    80001a42:	f1a080e7          	jalr	-230(ra) # 80001958 <reparent>
  wakeup(p->parent);
    80001a46:	0389b503          	ld	a0,56(s3)
    80001a4a:	00000097          	auipc	ra,0x0
    80001a4e:	e98080e7          	jalr	-360(ra) # 800018e2 <wakeup>
  acquire(&p->lock);
    80001a52:	854e                	mv	a0,s3
    80001a54:	00005097          	auipc	ra,0x5
    80001a58:	a3e080e7          	jalr	-1474(ra) # 80006492 <acquire>
  p->xstate = status;
    80001a5c:	0349a623          	sw	s4,44(s3)
  p->state = ZOMBIE;
    80001a60:	4795                	li	a5,5
    80001a62:	00f9ac23          	sw	a5,24(s3)
  release(&wait_lock);
    80001a66:	8526                	mv	a0,s1
    80001a68:	00005097          	auipc	ra,0x5
    80001a6c:	ada080e7          	jalr	-1318(ra) # 80006542 <release>
  sched();
    80001a70:	00000097          	auipc	ra,0x0
    80001a74:	bda080e7          	jalr	-1062(ra) # 8000164a <sched>
  panic("zombie exit");
    80001a78:	00006517          	auipc	a0,0x6
    80001a7c:	78850513          	addi	a0,a0,1928 # 80008200 <etext+0x200>
    80001a80:	00004097          	auipc	ra,0x4
    80001a84:	492080e7          	jalr	1170(ra) # 80005f12 <panic>

0000000080001a88 <kill>:
// Kill the process with the given pid.
// The victim won't exit until it tries to return
// to user space (see usertrap() in trap.c).
int
kill(int pid)
{
    80001a88:	7179                	addi	sp,sp,-48
    80001a8a:	f406                	sd	ra,40(sp)
    80001a8c:	f022                	sd	s0,32(sp)
    80001a8e:	ec26                	sd	s1,24(sp)
    80001a90:	e84a                	sd	s2,16(sp)
    80001a92:	e44e                	sd	s3,8(sp)
    80001a94:	1800                	addi	s0,sp,48
    80001a96:	892a                	mv	s2,a0
  struct proc *p;

  for(p = proc; p < &proc[NPROC]; p++){
    80001a98:	00248497          	auipc	s1,0x248
    80001a9c:	a2048493          	addi	s1,s1,-1504 # 802494b8 <proc>
    80001aa0:	0024d997          	auipc	s3,0x24d
    80001aa4:	41898993          	addi	s3,s3,1048 # 8024eeb8 <tickslock>
    acquire(&p->lock);
    80001aa8:	8526                	mv	a0,s1
    80001aaa:	00005097          	auipc	ra,0x5
    80001aae:	9e8080e7          	jalr	-1560(ra) # 80006492 <acquire>
    if(p->pid == pid){
    80001ab2:	589c                	lw	a5,48(s1)
    80001ab4:	01278d63          	beq	a5,s2,80001ace <kill+0x46>
        p->state = RUNNABLE;
      }
      release(&p->lock);
      return 0;
    }
    release(&p->lock);
    80001ab8:	8526                	mv	a0,s1
    80001aba:	00005097          	auipc	ra,0x5
    80001abe:	a88080e7          	jalr	-1400(ra) # 80006542 <release>
  for(p = proc; p < &proc[NPROC]; p++){
    80001ac2:	16848493          	addi	s1,s1,360
    80001ac6:	ff3491e3          	bne	s1,s3,80001aa8 <kill+0x20>
  }
  return -1;
    80001aca:	557d                	li	a0,-1
    80001acc:	a829                	j	80001ae6 <kill+0x5e>
      p->killed = 1;
    80001ace:	4785                	li	a5,1
    80001ad0:	d49c                	sw	a5,40(s1)
      if(p->state == SLEEPING){
    80001ad2:	4c98                	lw	a4,24(s1)
    80001ad4:	4789                	li	a5,2
    80001ad6:	00f70f63          	beq	a4,a5,80001af4 <kill+0x6c>
      release(&p->lock);
    80001ada:	8526                	mv	a0,s1
    80001adc:	00005097          	auipc	ra,0x5
    80001ae0:	a66080e7          	jalr	-1434(ra) # 80006542 <release>
      return 0;
    80001ae4:	4501                	li	a0,0
}
    80001ae6:	70a2                	ld	ra,40(sp)
    80001ae8:	7402                	ld	s0,32(sp)
    80001aea:	64e2                	ld	s1,24(sp)
    80001aec:	6942                	ld	s2,16(sp)
    80001aee:	69a2                	ld	s3,8(sp)
    80001af0:	6145                	addi	sp,sp,48
    80001af2:	8082                	ret
        p->state = RUNNABLE;
    80001af4:	478d                	li	a5,3
    80001af6:	cc9c                	sw	a5,24(s1)
    80001af8:	b7cd                	j	80001ada <kill+0x52>

0000000080001afa <either_copyout>:
// Copy to either a user address, or kernel address,
// depending on usr_dst.
// Returns 0 on success, -1 on error.
int
either_copyout(int user_dst, uint64 dst, void *src, uint64 len)
{
    80001afa:	7179                	addi	sp,sp,-48
    80001afc:	f406                	sd	ra,40(sp)
    80001afe:	f022                	sd	s0,32(sp)
    80001b00:	ec26                	sd	s1,24(sp)
    80001b02:	e84a                	sd	s2,16(sp)
    80001b04:	e44e                	sd	s3,8(sp)
    80001b06:	e052                	sd	s4,0(sp)
    80001b08:	1800                	addi	s0,sp,48
    80001b0a:	84aa                	mv	s1,a0
    80001b0c:	892e                	mv	s2,a1
    80001b0e:	89b2                	mv	s3,a2
    80001b10:	8a36                	mv	s4,a3
  struct proc *p = myproc();
    80001b12:	fffff097          	auipc	ra,0xfffff
    80001b16:	584080e7          	jalr	1412(ra) # 80001096 <myproc>
  if(user_dst){
    80001b1a:	c08d                	beqz	s1,80001b3c <either_copyout+0x42>
    return copyout(p->pagetable, dst, src, len);
    80001b1c:	86d2                	mv	a3,s4
    80001b1e:	864e                	mv	a2,s3
    80001b20:	85ca                	mv	a1,s2
    80001b22:	6928                	ld	a0,80(a0)
    80001b24:	fffff097          	auipc	ra,0xfffff
    80001b28:	18a080e7          	jalr	394(ra) # 80000cae <copyout>
  } else {
    memmove((char *)dst, src, len);
    return 0;
  }
}
    80001b2c:	70a2                	ld	ra,40(sp)
    80001b2e:	7402                	ld	s0,32(sp)
    80001b30:	64e2                	ld	s1,24(sp)
    80001b32:	6942                	ld	s2,16(sp)
    80001b34:	69a2                	ld	s3,8(sp)
    80001b36:	6a02                	ld	s4,0(sp)
    80001b38:	6145                	addi	sp,sp,48
    80001b3a:	8082                	ret
    memmove((char *)dst, src, len);
    80001b3c:	000a061b          	sext.w	a2,s4
    80001b40:	85ce                	mv	a1,s3
    80001b42:	854a                	mv	a0,s2
    80001b44:	ffffe097          	auipc	ra,0xffffe
    80001b48:	7d8080e7          	jalr	2008(ra) # 8000031c <memmove>
    return 0;
    80001b4c:	8526                	mv	a0,s1
    80001b4e:	bff9                	j	80001b2c <either_copyout+0x32>

0000000080001b50 <either_copyin>:
// Copy from either a user address, or kernel address,
// depending on usr_src.
// Returns 0 on success, -1 on error.
int
either_copyin(void *dst, int user_src, uint64 src, uint64 len)
{
    80001b50:	7179                	addi	sp,sp,-48
    80001b52:	f406                	sd	ra,40(sp)
    80001b54:	f022                	sd	s0,32(sp)
    80001b56:	ec26                	sd	s1,24(sp)
    80001b58:	e84a                	sd	s2,16(sp)
    80001b5a:	e44e                	sd	s3,8(sp)
    80001b5c:	e052                	sd	s4,0(sp)
    80001b5e:	1800                	addi	s0,sp,48
    80001b60:	892a                	mv	s2,a0
    80001b62:	84ae                	mv	s1,a1
    80001b64:	89b2                	mv	s3,a2
    80001b66:	8a36                	mv	s4,a3
  struct proc *p = myproc();
    80001b68:	fffff097          	auipc	ra,0xfffff
    80001b6c:	52e080e7          	jalr	1326(ra) # 80001096 <myproc>
  if(user_src){
    80001b70:	c08d                	beqz	s1,80001b92 <either_copyin+0x42>
    return copyin(p->pagetable, dst, src, len);
    80001b72:	86d2                	mv	a3,s4
    80001b74:	864e                	mv	a2,s3
    80001b76:	85ca                	mv	a1,s2
    80001b78:	6928                	ld	a0,80(a0)
    80001b7a:	fffff097          	auipc	ra,0xfffff
    80001b7e:	254080e7          	jalr	596(ra) # 80000dce <copyin>
  } else {
    memmove(dst, (char*)src, len);
    return 0;
  }
}
    80001b82:	70a2                	ld	ra,40(sp)
    80001b84:	7402                	ld	s0,32(sp)
    80001b86:	64e2                	ld	s1,24(sp)
    80001b88:	6942                	ld	s2,16(sp)
    80001b8a:	69a2                	ld	s3,8(sp)
    80001b8c:	6a02                	ld	s4,0(sp)
    80001b8e:	6145                	addi	sp,sp,48
    80001b90:	8082                	ret
    memmove(dst, (char*)src, len);
    80001b92:	000a061b          	sext.w	a2,s4
    80001b96:	85ce                	mv	a1,s3
    80001b98:	854a                	mv	a0,s2
    80001b9a:	ffffe097          	auipc	ra,0xffffe
    80001b9e:	782080e7          	jalr	1922(ra) # 8000031c <memmove>
    return 0;
    80001ba2:	8526                	mv	a0,s1
    80001ba4:	bff9                	j	80001b82 <either_copyin+0x32>

0000000080001ba6 <procdump>:
// Print a process listing to console.  For debugging.
// Runs when user types ^P on console.
// No lock to avoid wedging a stuck machine further.
void
procdump(void)
{
    80001ba6:	715d                	addi	sp,sp,-80
    80001ba8:	e486                	sd	ra,72(sp)
    80001baa:	e0a2                	sd	s0,64(sp)
    80001bac:	fc26                	sd	s1,56(sp)
    80001bae:	f84a                	sd	s2,48(sp)
    80001bb0:	f44e                	sd	s3,40(sp)
    80001bb2:	f052                	sd	s4,32(sp)
    80001bb4:	ec56                	sd	s5,24(sp)
    80001bb6:	e85a                	sd	s6,16(sp)
    80001bb8:	e45e                	sd	s7,8(sp)
    80001bba:	0880                	addi	s0,sp,80
  [ZOMBIE]    "zombie"
  };
  struct proc *p;
  char *state;

  printf("\n");
    80001bbc:	00006517          	auipc	a0,0x6
    80001bc0:	46c50513          	addi	a0,a0,1132 # 80008028 <etext+0x28>
    80001bc4:	00004097          	auipc	ra,0x4
    80001bc8:	398080e7          	jalr	920(ra) # 80005f5c <printf>
  for(p = proc; p < &proc[NPROC]; p++){
    80001bcc:	00248497          	auipc	s1,0x248
    80001bd0:	a4448493          	addi	s1,s1,-1468 # 80249610 <proc+0x158>
    80001bd4:	0024d917          	auipc	s2,0x24d
    80001bd8:	43c90913          	addi	s2,s2,1084 # 8024f010 <bcache+0x140>
    if(p->state == UNUSED)
      continue;
    if(p->state >= 0 && p->state < NELEM(states) && states[p->state])
    80001bdc:	4b15                	li	s6,5
      state = states[p->state];
    else
      state = "???";
    80001bde:	00006997          	auipc	s3,0x6
    80001be2:	63298993          	addi	s3,s3,1586 # 80008210 <etext+0x210>
    printf("%d %s %s", p->pid, state, p->name);
    80001be6:	00006a97          	auipc	s5,0x6
    80001bea:	632a8a93          	addi	s5,s5,1586 # 80008218 <etext+0x218>
    printf("\n");
    80001bee:	00006a17          	auipc	s4,0x6
    80001bf2:	43aa0a13          	addi	s4,s4,1082 # 80008028 <etext+0x28>
    if(p->state >= 0 && p->state < NELEM(states) && states[p->state])
    80001bf6:	00007b97          	auipc	s7,0x7
    80001bfa:	b1ab8b93          	addi	s7,s7,-1254 # 80008710 <states.0>
    80001bfe:	a00d                	j	80001c20 <procdump+0x7a>
    printf("%d %s %s", p->pid, state, p->name);
    80001c00:	ed86a583          	lw	a1,-296(a3)
    80001c04:	8556                	mv	a0,s5
    80001c06:	00004097          	auipc	ra,0x4
    80001c0a:	356080e7          	jalr	854(ra) # 80005f5c <printf>
    printf("\n");
    80001c0e:	8552                	mv	a0,s4
    80001c10:	00004097          	auipc	ra,0x4
    80001c14:	34c080e7          	jalr	844(ra) # 80005f5c <printf>
  for(p = proc; p < &proc[NPROC]; p++){
    80001c18:	16848493          	addi	s1,s1,360
    80001c1c:	03248263          	beq	s1,s2,80001c40 <procdump+0x9a>
    if(p->state == UNUSED)
    80001c20:	86a6                	mv	a3,s1
    80001c22:	ec04a783          	lw	a5,-320(s1)
    80001c26:	dbed                	beqz	a5,80001c18 <procdump+0x72>
      state = "???";
    80001c28:	864e                	mv	a2,s3
    if(p->state >= 0 && p->state < NELEM(states) && states[p->state])
    80001c2a:	fcfb6be3          	bltu	s6,a5,80001c00 <procdump+0x5a>
    80001c2e:	02079713          	slli	a4,a5,0x20
    80001c32:	01d75793          	srli	a5,a4,0x1d
    80001c36:	97de                	add	a5,a5,s7
    80001c38:	6390                	ld	a2,0(a5)
    80001c3a:	f279                	bnez	a2,80001c00 <procdump+0x5a>
      state = "???";
    80001c3c:	864e                	mv	a2,s3
    80001c3e:	b7c9                	j	80001c00 <procdump+0x5a>
  }
}
    80001c40:	60a6                	ld	ra,72(sp)
    80001c42:	6406                	ld	s0,64(sp)
    80001c44:	74e2                	ld	s1,56(sp)
    80001c46:	7942                	ld	s2,48(sp)
    80001c48:	79a2                	ld	s3,40(sp)
    80001c4a:	7a02                	ld	s4,32(sp)
    80001c4c:	6ae2                	ld	s5,24(sp)
    80001c4e:	6b42                	ld	s6,16(sp)
    80001c50:	6ba2                	ld	s7,8(sp)
    80001c52:	6161                	addi	sp,sp,80
    80001c54:	8082                	ret

0000000080001c56 <swtch>:
    80001c56:	00153023          	sd	ra,0(a0)
    80001c5a:	00253423          	sd	sp,8(a0)
    80001c5e:	e900                	sd	s0,16(a0)
    80001c60:	ed04                	sd	s1,24(a0)
    80001c62:	03253023          	sd	s2,32(a0)
    80001c66:	03353423          	sd	s3,40(a0)
    80001c6a:	03453823          	sd	s4,48(a0)
    80001c6e:	03553c23          	sd	s5,56(a0)
    80001c72:	05653023          	sd	s6,64(a0)
    80001c76:	05753423          	sd	s7,72(a0)
    80001c7a:	05853823          	sd	s8,80(a0)
    80001c7e:	05953c23          	sd	s9,88(a0)
    80001c82:	07a53023          	sd	s10,96(a0)
    80001c86:	07b53423          	sd	s11,104(a0)
    80001c8a:	0005b083          	ld	ra,0(a1)
    80001c8e:	0085b103          	ld	sp,8(a1)
    80001c92:	6980                	ld	s0,16(a1)
    80001c94:	6d84                	ld	s1,24(a1)
    80001c96:	0205b903          	ld	s2,32(a1)
    80001c9a:	0285b983          	ld	s3,40(a1)
    80001c9e:	0305ba03          	ld	s4,48(a1)
    80001ca2:	0385ba83          	ld	s5,56(a1)
    80001ca6:	0405bb03          	ld	s6,64(a1)
    80001caa:	0485bb83          	ld	s7,72(a1)
    80001cae:	0505bc03          	ld	s8,80(a1)
    80001cb2:	0585bc83          	ld	s9,88(a1)
    80001cb6:	0605bd03          	ld	s10,96(a1)
    80001cba:	0685bd83          	ld	s11,104(a1)
    80001cbe:	8082                	ret

0000000080001cc0 <trapinit>:
void kernelvec();

extern int devintr();

void trapinit(void)
{
    80001cc0:	1141                	addi	sp,sp,-16
    80001cc2:	e406                	sd	ra,8(sp)
    80001cc4:	e022                	sd	s0,0(sp)
    80001cc6:	0800                	addi	s0,sp,16
  initlock(&tickslock, "time");
    80001cc8:	00006597          	auipc	a1,0x6
    80001ccc:	58858593          	addi	a1,a1,1416 # 80008250 <etext+0x250>
    80001cd0:	0024d517          	auipc	a0,0x24d
    80001cd4:	1e850513          	addi	a0,a0,488 # 8024eeb8 <tickslock>
    80001cd8:	00004097          	auipc	ra,0x4
    80001cdc:	726080e7          	jalr	1830(ra) # 800063fe <initlock>
}
    80001ce0:	60a2                	ld	ra,8(sp)
    80001ce2:	6402                	ld	s0,0(sp)
    80001ce4:	0141                	addi	sp,sp,16
    80001ce6:	8082                	ret

0000000080001ce8 <trapinithart>:

// set up to take exceptions and traps while in the kernel.
void trapinithart(void)
{
    80001ce8:	1141                	addi	sp,sp,-16
    80001cea:	e406                	sd	ra,8(sp)
    80001cec:	e022                	sd	s0,0(sp)
    80001cee:	0800                	addi	s0,sp,16
  asm volatile("csrw stvec, %0" : : "r" (x));
    80001cf0:	00003797          	auipc	a5,0x3
    80001cf4:	65078793          	addi	a5,a5,1616 # 80005340 <kernelvec>
    80001cf8:	10579073          	csrw	stvec,a5
  w_stvec((uint64)kernelvec);
}
    80001cfc:	60a2                	ld	ra,8(sp)
    80001cfe:	6402                	ld	s0,0(sp)
    80001d00:	0141                	addi	sp,sp,16
    80001d02:	8082                	ret

0000000080001d04 <usertrapret>:

//
// return to user space
//
void usertrapret(void)
{
    80001d04:	1141                	addi	sp,sp,-16
    80001d06:	e406                	sd	ra,8(sp)
    80001d08:	e022                	sd	s0,0(sp)
    80001d0a:	0800                	addi	s0,sp,16
  struct proc *p = myproc();
    80001d0c:	fffff097          	auipc	ra,0xfffff
    80001d10:	38a080e7          	jalr	906(ra) # 80001096 <myproc>
  asm volatile("csrr %0, sstatus" : "=r" (x) );
    80001d14:	100027f3          	csrr	a5,sstatus
  w_sstatus(r_sstatus() & ~SSTATUS_SIE);
    80001d18:	9bf5                	andi	a5,a5,-3
  asm volatile("csrw sstatus, %0" : : "r" (x));
    80001d1a:	10079073          	csrw	sstatus,a5
  // kerneltrap() to usertrap(), so turn off interrupts until
  // we're back in user space, where usertrap() is correct.
  intr_off();

  // send syscalls, interrupts, and exceptions to trampoline.S
  w_stvec(TRAMPOLINE + (uservec - trampoline));
    80001d1e:	00005697          	auipc	a3,0x5
    80001d22:	2e268693          	addi	a3,a3,738 # 80007000 <_trampoline>
    80001d26:	00005717          	auipc	a4,0x5
    80001d2a:	2da70713          	addi	a4,a4,730 # 80007000 <_trampoline>
    80001d2e:	8f15                	sub	a4,a4,a3
    80001d30:	040007b7          	lui	a5,0x4000
    80001d34:	17fd                	addi	a5,a5,-1 # 3ffffff <_entry-0x7c000001>
    80001d36:	07b2                	slli	a5,a5,0xc
    80001d38:	973e                	add	a4,a4,a5
  asm volatile("csrw stvec, %0" : : "r" (x));
    80001d3a:	10571073          	csrw	stvec,a4

  // set up trapframe values that uservec will need when
  // the process next re-enters the kernel.
  p->trapframe->kernel_satp = r_satp();         // kernel page table
    80001d3e:	6d38                	ld	a4,88(a0)
  asm volatile("csrr %0, satp" : "=r" (x) );
    80001d40:	18002673          	csrr	a2,satp
    80001d44:	e310                	sd	a2,0(a4)
  p->trapframe->kernel_sp = p->kstack + PGSIZE; // process's kernel stack
    80001d46:	6d30                	ld	a2,88(a0)
    80001d48:	6138                	ld	a4,64(a0)
    80001d4a:	6585                	lui	a1,0x1
    80001d4c:	972e                	add	a4,a4,a1
    80001d4e:	e618                	sd	a4,8(a2)
  p->trapframe->kernel_trap = (uint64)usertrap;
    80001d50:	6d38                	ld	a4,88(a0)
    80001d52:	00000617          	auipc	a2,0x0
    80001d56:	14060613          	addi	a2,a2,320 # 80001e92 <usertrap>
    80001d5a:	eb10                	sd	a2,16(a4)
  p->trapframe->kernel_hartid = r_tp(); // hartid for cpuid()
    80001d5c:	6d38                	ld	a4,88(a0)
  asm volatile("mv %0, tp" : "=r" (x) );
    80001d5e:	8612                	mv	a2,tp
    80001d60:	f310                	sd	a2,32(a4)
  asm volatile("csrr %0, sstatus" : "=r" (x) );
    80001d62:	10002773          	csrr	a4,sstatus
  // set up the registers that trampoline.S's sret will use
  // to get to user space.

  // set S Previous Privilege mode to User.
  unsigned long x = r_sstatus();
  x &= ~SSTATUS_SPP; // clear SPP to 0 for user mode
    80001d66:	eff77713          	andi	a4,a4,-257
  x |= SSTATUS_SPIE; // enable interrupts in user mode
    80001d6a:	02076713          	ori	a4,a4,32
  asm volatile("csrw sstatus, %0" : : "r" (x));
    80001d6e:	10071073          	csrw	sstatus,a4
  w_sstatus(x);

  // set S Exception Program Counter to the saved user pc.
  w_sepc(p->trapframe->epc);
    80001d72:	6d38                	ld	a4,88(a0)
  asm volatile("csrw sepc, %0" : : "r" (x));
    80001d74:	6f18                	ld	a4,24(a4)
    80001d76:	14171073          	csrw	sepc,a4

  // tell trampoline.S the user page table to switch to.
  uint64 satp = MAKE_SATP(p->pagetable);
    80001d7a:	692c                	ld	a1,80(a0)
    80001d7c:	81b1                	srli	a1,a1,0xc

  // jump to trampoline.S at the top of memory, which
  // switches to the user page table, restores user registers,
  // and switches to user mode with sret.
  uint64 fn = TRAMPOLINE + (userret - trampoline);
    80001d7e:	00005717          	auipc	a4,0x5
    80001d82:	31270713          	addi	a4,a4,786 # 80007090 <userret>
    80001d86:	8f15                	sub	a4,a4,a3
    80001d88:	97ba                	add	a5,a5,a4
  ((void (*)(uint64, uint64))fn)(TRAPFRAME, satp);
    80001d8a:	577d                	li	a4,-1
    80001d8c:	177e                	slli	a4,a4,0x3f
    80001d8e:	8dd9                	or	a1,a1,a4
    80001d90:	02000537          	lui	a0,0x2000
    80001d94:	157d                	addi	a0,a0,-1 # 1ffffff <_entry-0x7e000001>
    80001d96:	0536                	slli	a0,a0,0xd
    80001d98:	9782                	jalr	a5
}
    80001d9a:	60a2                	ld	ra,8(sp)
    80001d9c:	6402                	ld	s0,0(sp)
    80001d9e:	0141                	addi	sp,sp,16
    80001da0:	8082                	ret

0000000080001da2 <clockintr>:
  w_sepc(sepc);
  w_sstatus(sstatus);
}

void clockintr()
{
    80001da2:	1101                	addi	sp,sp,-32
    80001da4:	ec06                	sd	ra,24(sp)
    80001da6:	e822                	sd	s0,16(sp)
    80001da8:	e426                	sd	s1,8(sp)
    80001daa:	1000                	addi	s0,sp,32
  acquire(&tickslock);
    80001dac:	0024d497          	auipc	s1,0x24d
    80001db0:	10c48493          	addi	s1,s1,268 # 8024eeb8 <tickslock>
    80001db4:	8526                	mv	a0,s1
    80001db6:	00004097          	auipc	ra,0x4
    80001dba:	6dc080e7          	jalr	1756(ra) # 80006492 <acquire>
  ticks++;
    80001dbe:	00007517          	auipc	a0,0x7
    80001dc2:	25a50513          	addi	a0,a0,602 # 80009018 <ticks>
    80001dc6:	411c                	lw	a5,0(a0)
    80001dc8:	2785                	addiw	a5,a5,1
    80001dca:	c11c                	sw	a5,0(a0)
  wakeup(&ticks);
    80001dcc:	00000097          	auipc	ra,0x0
    80001dd0:	b16080e7          	jalr	-1258(ra) # 800018e2 <wakeup>
  release(&tickslock);
    80001dd4:	8526                	mv	a0,s1
    80001dd6:	00004097          	auipc	ra,0x4
    80001dda:	76c080e7          	jalr	1900(ra) # 80006542 <release>
}
    80001dde:	60e2                	ld	ra,24(sp)
    80001de0:	6442                	ld	s0,16(sp)
    80001de2:	64a2                	ld	s1,8(sp)
    80001de4:	6105                	addi	sp,sp,32
    80001de6:	8082                	ret

0000000080001de8 <devintr>:
  asm volatile("csrr %0, scause" : "=r" (x) );
    80001de8:	142027f3          	csrr	a5,scause

    return 2;
  }
  else
  {
    return 0;
    80001dec:	4501                	li	a0,0
  if ((scause & 0x8000000000000000L) &&
    80001dee:	0a07d163          	bgez	a5,80001e90 <devintr+0xa8>
{
    80001df2:	1101                	addi	sp,sp,-32
    80001df4:	ec06                	sd	ra,24(sp)
    80001df6:	e822                	sd	s0,16(sp)
    80001df8:	1000                	addi	s0,sp,32
      (scause & 0xff) == 9)
    80001dfa:	0ff7f713          	zext.b	a4,a5
  if ((scause & 0x8000000000000000L) &&
    80001dfe:	46a5                	li	a3,9
    80001e00:	00d70c63          	beq	a4,a3,80001e18 <devintr+0x30>
  else if (scause == 0x8000000000000001L)
    80001e04:	577d                	li	a4,-1
    80001e06:	177e                	slli	a4,a4,0x3f
    80001e08:	0705                	addi	a4,a4,1
    return 0;
    80001e0a:	4501                	li	a0,0
  else if (scause == 0x8000000000000001L)
    80001e0c:	06e78163          	beq	a5,a4,80001e6e <devintr+0x86>
  }
}
    80001e10:	60e2                	ld	ra,24(sp)
    80001e12:	6442                	ld	s0,16(sp)
    80001e14:	6105                	addi	sp,sp,32
    80001e16:	8082                	ret
    80001e18:	e426                	sd	s1,8(sp)
    int irq = plic_claim();
    80001e1a:	00003097          	auipc	ra,0x3
    80001e1e:	632080e7          	jalr	1586(ra) # 8000544c <plic_claim>
    80001e22:	84aa                	mv	s1,a0
    if (irq == UART0_IRQ)
    80001e24:	47a9                	li	a5,10
    80001e26:	00f50963          	beq	a0,a5,80001e38 <devintr+0x50>
    else if (irq == VIRTIO0_IRQ)
    80001e2a:	4785                	li	a5,1
    80001e2c:	00f50b63          	beq	a0,a5,80001e42 <devintr+0x5a>
    return 1;
    80001e30:	4505                	li	a0,1
    else if (irq)
    80001e32:	ec89                	bnez	s1,80001e4c <devintr+0x64>
    80001e34:	64a2                	ld	s1,8(sp)
    80001e36:	bfe9                	j	80001e10 <devintr+0x28>
      uartintr();
    80001e38:	00004097          	auipc	ra,0x4
    80001e3c:	576080e7          	jalr	1398(ra) # 800063ae <uartintr>
    if (irq)
    80001e40:	a839                	j	80001e5e <devintr+0x76>
      virtio_disk_intr();
    80001e42:	00004097          	auipc	ra,0x4
    80001e46:	ac4080e7          	jalr	-1340(ra) # 80005906 <virtio_disk_intr>
    if (irq)
    80001e4a:	a811                	j	80001e5e <devintr+0x76>
      printf("unexpected interrupt irq=%d\n", irq);
    80001e4c:	85a6                	mv	a1,s1
    80001e4e:	00006517          	auipc	a0,0x6
    80001e52:	40a50513          	addi	a0,a0,1034 # 80008258 <etext+0x258>
    80001e56:	00004097          	auipc	ra,0x4
    80001e5a:	106080e7          	jalr	262(ra) # 80005f5c <printf>
      plic_complete(irq);
    80001e5e:	8526                	mv	a0,s1
    80001e60:	00003097          	auipc	ra,0x3
    80001e64:	610080e7          	jalr	1552(ra) # 80005470 <plic_complete>
    return 1;
    80001e68:	4505                	li	a0,1
    80001e6a:	64a2                	ld	s1,8(sp)
    80001e6c:	b755                	j	80001e10 <devintr+0x28>
    if (cpuid() == 0)
    80001e6e:	fffff097          	auipc	ra,0xfffff
    80001e72:	1f4080e7          	jalr	500(ra) # 80001062 <cpuid>
    80001e76:	c901                	beqz	a0,80001e86 <devintr+0x9e>
  asm volatile("csrr %0, sip" : "=r" (x) );
    80001e78:	144027f3          	csrr	a5,sip
    w_sip(r_sip() & ~2);
    80001e7c:	9bf5                	andi	a5,a5,-3
  asm volatile("csrw sip, %0" : : "r" (x));
    80001e7e:	14479073          	csrw	sip,a5
    return 2;
    80001e82:	4509                	li	a0,2
    80001e84:	b771                	j	80001e10 <devintr+0x28>
      clockintr();
    80001e86:	00000097          	auipc	ra,0x0
    80001e8a:	f1c080e7          	jalr	-228(ra) # 80001da2 <clockintr>
    80001e8e:	b7ed                	j	80001e78 <devintr+0x90>
}
    80001e90:	8082                	ret

0000000080001e92 <usertrap>:
{
    80001e92:	7139                	addi	sp,sp,-64
    80001e94:	fc06                	sd	ra,56(sp)
    80001e96:	f822                	sd	s0,48(sp)
    80001e98:	0080                	addi	s0,sp,64
  asm volatile("csrr %0, sstatus" : "=r" (x) );
    80001e9a:	100027f3          	csrr	a5,sstatus
  if ((r_sstatus() & SSTATUS_SPP) != 0)
    80001e9e:	1007f793          	andi	a5,a5,256
    80001ea2:	e7a5                	bnez	a5,80001f0a <usertrap+0x78>
    80001ea4:	f426                	sd	s1,40(sp)
    80001ea6:	f04a                	sd	s2,32(sp)
  asm volatile("csrw stvec, %0" : : "r" (x));
    80001ea8:	00003797          	auipc	a5,0x3
    80001eac:	49878793          	addi	a5,a5,1176 # 80005340 <kernelvec>
    80001eb0:	10579073          	csrw	stvec,a5
  struct proc *p = myproc();
    80001eb4:	fffff097          	auipc	ra,0xfffff
    80001eb8:	1e2080e7          	jalr	482(ra) # 80001096 <myproc>
    80001ebc:	84aa                	mv	s1,a0
  p->trapframe->epc = r_sepc();
    80001ebe:	6d3c                	ld	a5,88(a0)
  asm volatile("csrr %0, sepc" : "=r" (x) );
    80001ec0:	14102773          	csrr	a4,sepc
    80001ec4:	ef98                	sd	a4,24(a5)
  asm volatile("csrr %0, scause" : "=r" (x) );
    80001ec6:	14202773          	csrr	a4,scause
  if (r_scause() == 8)
    80001eca:	47a1                	li	a5,8
    80001ecc:	06f71363          	bne	a4,a5,80001f32 <usertrap+0xa0>
    if (p->killed)
    80001ed0:	551c                	lw	a5,40(a0)
    80001ed2:	ebb1                	bnez	a5,80001f26 <usertrap+0x94>
    p->trapframe->epc += 4;
    80001ed4:	6cb8                	ld	a4,88(s1)
    80001ed6:	6f1c                	ld	a5,24(a4)
    80001ed8:	0791                	addi	a5,a5,4
    80001eda:	ef1c                	sd	a5,24(a4)
  asm volatile("csrr %0, sstatus" : "=r" (x) );
    80001edc:	100027f3          	csrr	a5,sstatus
  w_sstatus(r_sstatus() | SSTATUS_SIE);
    80001ee0:	0027e793          	ori	a5,a5,2
  asm volatile("csrw sstatus, %0" : : "r" (x));
    80001ee4:	10079073          	csrw	sstatus,a5
    syscall();
    80001ee8:	00000097          	auipc	ra,0x0
    80001eec:	392080e7          	jalr	914(ra) # 8000227a <syscall>
  if (p->killed)
    80001ef0:	549c                	lw	a5,40(s1)
    80001ef2:	12079c63          	bnez	a5,8000202a <usertrap+0x198>
  usertrapret();
    80001ef6:	00000097          	auipc	ra,0x0
    80001efa:	e0e080e7          	jalr	-498(ra) # 80001d04 <usertrapret>
    80001efe:	74a2                	ld	s1,40(sp)
    80001f00:	7902                	ld	s2,32(sp)
}
    80001f02:	70e2                	ld	ra,56(sp)
    80001f04:	7442                	ld	s0,48(sp)
    80001f06:	6121                	addi	sp,sp,64
    80001f08:	8082                	ret
    80001f0a:	f426                	sd	s1,40(sp)
    80001f0c:	f04a                	sd	s2,32(sp)
    80001f0e:	ec4e                	sd	s3,24(sp)
    80001f10:	e852                	sd	s4,16(sp)
    80001f12:	e456                	sd	s5,8(sp)
    80001f14:	e05a                	sd	s6,0(sp)
    panic("usertrap: not from user mode");
    80001f16:	00006517          	auipc	a0,0x6
    80001f1a:	36250513          	addi	a0,a0,866 # 80008278 <etext+0x278>
    80001f1e:	00004097          	auipc	ra,0x4
    80001f22:	ff4080e7          	jalr	-12(ra) # 80005f12 <panic>
      exit(-1);
    80001f26:	557d                	li	a0,-1
    80001f28:	00000097          	auipc	ra,0x0
    80001f2c:	a8a080e7          	jalr	-1398(ra) # 800019b2 <exit>
    80001f30:	b755                	j	80001ed4 <usertrap+0x42>
  else if ((which_dev = devintr()) != 0)
    80001f32:	00000097          	auipc	ra,0x0
    80001f36:	eb6080e7          	jalr	-330(ra) # 80001de8 <devintr>
    80001f3a:	892a                	mv	s2,a0
    80001f3c:	e565                	bnez	a0,80002024 <usertrap+0x192>
  asm volatile("csrr %0, scause" : "=r" (x) );
    80001f3e:	14202773          	csrr	a4,scause
  else if (r_scause() == 15)
    80001f42:	47bd                	li	a5,15
    80001f44:	08f71a63          	bne	a4,a5,80001fd8 <usertrap+0x146>
    80001f48:	ec4e                	sd	s3,24(sp)
    80001f4a:	e852                	sd	s4,16(sp)
    80001f4c:	e456                	sd	s5,8(sp)
    80001f4e:	e05a                	sd	s6,0(sp)
  asm volatile("csrr %0, stval" : "=r" (x) );
    80001f50:	143025f3          	csrr	a1,stval
    if(va > MAXVA) p->killed = 1; // invalid address, kill the process
    80001f54:	4785                	li	a5,1
    80001f56:	179a                	slli	a5,a5,0x26
    80001f58:	00b7f463          	bgeu	a5,a1,80001f60 <usertrap+0xce>
    80001f5c:	4785                	li	a5,1
    80001f5e:	d49c                	sw	a5,40(s1)
    pte_t *pte = walk(p->pagetable, va, 0);
    80001f60:	4601                	li	a2,0
    80001f62:	68a8                	ld	a0,80(s1)
    80001f64:	ffffe097          	auipc	ra,0xffffe
    80001f68:	64c080e7          	jalr	1612(ra) # 800005b0 <walk>
    80001f6c:	8a2a                	mv	s4,a0
    if(pte == 0 || (*pte & (PTE_V)) == 0 || (*pte & PTE_U) == 0) {
    80001f6e:	c511                	beqz	a0,80001f7a <usertrap+0xe8>
    80001f70:	611c                	ld	a5,0(a0)
    80001f72:	8bc5                	andi	a5,a5,17
    80001f74:	4745                	li	a4,17
    80001f76:	00e78463          	beq	a5,a4,80001f7e <usertrap+0xec>
      p->killed = 1; // page not present or not user-accessible, kill the process
    80001f7a:	4785                	li	a5,1
    80001f7c:	d49c                	sw	a5,40(s1)
    uint64 pa = PTE2PA(*pte);
    80001f7e:	000a3a83          	ld	s5,0(s4)
    uint flags = PTE_FLAGS(*pte);
    80001f82:	000a8b1b          	sext.w	s6,s5
    if(!(flags & PTE_C)) p->killed = 1; // not a COW page, so kill the process
    80001f86:	100af793          	andi	a5,s5,256
    80001f8a:	e399                	bnez	a5,80001f90 <usertrap+0xfe>
    80001f8c:	4785                	li	a5,1
    80001f8e:	d49c                	sw	a5,40(s1)
    if((mem = kalloc()) == 0) {
    80001f90:	ffffe097          	auipc	ra,0xffffe
    80001f94:	28e080e7          	jalr	654(ra) # 8000021e <kalloc>
    80001f98:	89aa                	mv	s3,a0
    80001f9a:	c951                	beqz	a0,8000202e <usertrap+0x19c>
    uint64 pa = PTE2PA(*pte);
    80001f9c:	00aada93          	srli	s5,s5,0xa
    80001fa0:	0ab2                	slli	s5,s5,0xc
      memmove(mem, (char *)pa, PGSIZE); // copy the page content
    80001fa2:	6605                	lui	a2,0x1
    80001fa4:	85d6                	mv	a1,s5
    80001fa6:	ffffe097          	auipc	ra,0xffffe
    80001faa:	376080e7          	jalr	886(ra) # 8000031c <memmove>
      *pte = PA2PTE((uint64)mem) | flags; // update the page table entry
    80001fae:	00c9d993          	srli	s3,s3,0xc
    80001fb2:	09aa                	slli	s3,s3,0xa
    flags &= ~PTE_C; // clear COW flag
    80001fb4:	2ffb7b13          	andi	s6,s6,767
      *pte = PA2PTE((uint64)mem) | flags; // update the page table entry
    80001fb8:	004b6b13          	ori	s6,s6,4
    80001fbc:	0169e9b3          	or	s3,s3,s6
    80001fc0:	013a3023          	sd	s3,0(s4)
      kfree((void *)pa); // free the old page
    80001fc4:	8556                	mv	a0,s5
    80001fc6:	ffffe097          	auipc	ra,0xffffe
    80001fca:	0ee080e7          	jalr	238(ra) # 800000b4 <kfree>
    80001fce:	69e2                	ld	s3,24(sp)
    80001fd0:	6a42                	ld	s4,16(sp)
    80001fd2:	6aa2                	ld	s5,8(sp)
    80001fd4:	6b02                	ld	s6,0(sp)
    80001fd6:	bf29                	j	80001ef0 <usertrap+0x5e>
  asm volatile("csrr %0, scause" : "=r" (x) );
    80001fd8:	142025f3          	csrr	a1,scause
    printf("usertrap(): unexpected scause %p pid=%d\n", r_scause(), p->pid);
    80001fdc:	5890                	lw	a2,48(s1)
    80001fde:	00006517          	auipc	a0,0x6
    80001fe2:	2ba50513          	addi	a0,a0,698 # 80008298 <etext+0x298>
    80001fe6:	00004097          	auipc	ra,0x4
    80001fea:	f76080e7          	jalr	-138(ra) # 80005f5c <printf>
  asm volatile("csrr %0, sepc" : "=r" (x) );
    80001fee:	141025f3          	csrr	a1,sepc
  asm volatile("csrr %0, stval" : "=r" (x) );
    80001ff2:	14302673          	csrr	a2,stval
    printf("            sepc=%p stval=%p\n", r_sepc(), r_stval());
    80001ff6:	00006517          	auipc	a0,0x6
    80001ffa:	2d250513          	addi	a0,a0,722 # 800082c8 <etext+0x2c8>
    80001ffe:	00004097          	auipc	ra,0x4
    80002002:	f5e080e7          	jalr	-162(ra) # 80005f5c <printf>
      p->killed = 1; // out of memory, kill the process
    80002006:	4785                	li	a5,1
    80002008:	d49c                	sw	a5,40(s1)
    exit(-1);
    8000200a:	557d                	li	a0,-1
    8000200c:	00000097          	auipc	ra,0x0
    80002010:	9a6080e7          	jalr	-1626(ra) # 800019b2 <exit>
  if (which_dev == 2)
    80002014:	4789                	li	a5,2
    80002016:	eef910e3          	bne	s2,a5,80001ef6 <usertrap+0x64>
    yield();
    8000201a:	fffff097          	auipc	ra,0xfffff
    8000201e:	706080e7          	jalr	1798(ra) # 80001720 <yield>
    80002022:	bdd1                	j	80001ef6 <usertrap+0x64>
  if (p->killed)
    80002024:	549c                	lw	a5,40(s1)
    80002026:	d7fd                	beqz	a5,80002014 <usertrap+0x182>
    80002028:	b7cd                	j	8000200a <usertrap+0x178>
    8000202a:	4901                	li	s2,0
    8000202c:	bff9                	j	8000200a <usertrap+0x178>
    8000202e:	69e2                	ld	s3,24(sp)
    80002030:	6a42                	ld	s4,16(sp)
    80002032:	6aa2                	ld	s5,8(sp)
    80002034:	6b02                	ld	s6,0(sp)
    80002036:	bfc1                	j	80002006 <usertrap+0x174>

0000000080002038 <kerneltrap>:
{
    80002038:	7179                	addi	sp,sp,-48
    8000203a:	f406                	sd	ra,40(sp)
    8000203c:	f022                	sd	s0,32(sp)
    8000203e:	ec26                	sd	s1,24(sp)
    80002040:	e84a                	sd	s2,16(sp)
    80002042:	e44e                	sd	s3,8(sp)
    80002044:	1800                	addi	s0,sp,48
  asm volatile("csrr %0, sepc" : "=r" (x) );
    80002046:	14102973          	csrr	s2,sepc
  asm volatile("csrr %0, sstatus" : "=r" (x) );
    8000204a:	100024f3          	csrr	s1,sstatus
  asm volatile("csrr %0, scause" : "=r" (x) );
    8000204e:	142029f3          	csrr	s3,scause
  if ((sstatus & SSTATUS_SPP) == 0)
    80002052:	1004f793          	andi	a5,s1,256
    80002056:	cb85                	beqz	a5,80002086 <kerneltrap+0x4e>
  asm volatile("csrr %0, sstatus" : "=r" (x) );
    80002058:	100027f3          	csrr	a5,sstatus
  return (x & SSTATUS_SIE) != 0;
    8000205c:	8b89                	andi	a5,a5,2
  if (intr_get() != 0)
    8000205e:	ef85                	bnez	a5,80002096 <kerneltrap+0x5e>
  if ((which_dev = devintr()) == 0)
    80002060:	00000097          	auipc	ra,0x0
    80002064:	d88080e7          	jalr	-632(ra) # 80001de8 <devintr>
    80002068:	cd1d                	beqz	a0,800020a6 <kerneltrap+0x6e>
  if (which_dev == 2 && myproc() != 0 && myproc()->state == RUNNING)
    8000206a:	4789                	li	a5,2
    8000206c:	06f50a63          	beq	a0,a5,800020e0 <kerneltrap+0xa8>
  asm volatile("csrw sepc, %0" : : "r" (x));
    80002070:	14191073          	csrw	sepc,s2
  asm volatile("csrw sstatus, %0" : : "r" (x));
    80002074:	10049073          	csrw	sstatus,s1
}
    80002078:	70a2                	ld	ra,40(sp)
    8000207a:	7402                	ld	s0,32(sp)
    8000207c:	64e2                	ld	s1,24(sp)
    8000207e:	6942                	ld	s2,16(sp)
    80002080:	69a2                	ld	s3,8(sp)
    80002082:	6145                	addi	sp,sp,48
    80002084:	8082                	ret
    panic("kerneltrap: not from supervisor mode");
    80002086:	00006517          	auipc	a0,0x6
    8000208a:	26250513          	addi	a0,a0,610 # 800082e8 <etext+0x2e8>
    8000208e:	00004097          	auipc	ra,0x4
    80002092:	e84080e7          	jalr	-380(ra) # 80005f12 <panic>
    panic("kerneltrap: interrupts enabled");
    80002096:	00006517          	auipc	a0,0x6
    8000209a:	27a50513          	addi	a0,a0,634 # 80008310 <etext+0x310>
    8000209e:	00004097          	auipc	ra,0x4
    800020a2:	e74080e7          	jalr	-396(ra) # 80005f12 <panic>
    printf("scause %p\n", scause);
    800020a6:	85ce                	mv	a1,s3
    800020a8:	00006517          	auipc	a0,0x6
    800020ac:	28850513          	addi	a0,a0,648 # 80008330 <etext+0x330>
    800020b0:	00004097          	auipc	ra,0x4
    800020b4:	eac080e7          	jalr	-340(ra) # 80005f5c <printf>
  asm volatile("csrr %0, sepc" : "=r" (x) );
    800020b8:	141025f3          	csrr	a1,sepc
  asm volatile("csrr %0, stval" : "=r" (x) );
    800020bc:	14302673          	csrr	a2,stval
    printf("sepc=%p stval=%p\n", r_sepc(), r_stval());
    800020c0:	00006517          	auipc	a0,0x6
    800020c4:	28050513          	addi	a0,a0,640 # 80008340 <etext+0x340>
    800020c8:	00004097          	auipc	ra,0x4
    800020cc:	e94080e7          	jalr	-364(ra) # 80005f5c <printf>
    panic("kerneltrap");
    800020d0:	00006517          	auipc	a0,0x6
    800020d4:	28850513          	addi	a0,a0,648 # 80008358 <etext+0x358>
    800020d8:	00004097          	auipc	ra,0x4
    800020dc:	e3a080e7          	jalr	-454(ra) # 80005f12 <panic>
  if (which_dev == 2 && myproc() != 0 && myproc()->state == RUNNING)
    800020e0:	fffff097          	auipc	ra,0xfffff
    800020e4:	fb6080e7          	jalr	-74(ra) # 80001096 <myproc>
    800020e8:	d541                	beqz	a0,80002070 <kerneltrap+0x38>
    800020ea:	fffff097          	auipc	ra,0xfffff
    800020ee:	fac080e7          	jalr	-84(ra) # 80001096 <myproc>
    800020f2:	4d18                	lw	a4,24(a0)
    800020f4:	4791                	li	a5,4
    800020f6:	f6f71de3          	bne	a4,a5,80002070 <kerneltrap+0x38>
    yield();
    800020fa:	fffff097          	auipc	ra,0xfffff
    800020fe:	626080e7          	jalr	1574(ra) # 80001720 <yield>
    80002102:	b7bd                	j	80002070 <kerneltrap+0x38>

0000000080002104 <argraw>:
  return strlen(buf);
}

static uint64
argraw(int n)
{
    80002104:	1101                	addi	sp,sp,-32
    80002106:	ec06                	sd	ra,24(sp)
    80002108:	e822                	sd	s0,16(sp)
    8000210a:	e426                	sd	s1,8(sp)
    8000210c:	1000                	addi	s0,sp,32
    8000210e:	84aa                	mv	s1,a0
  struct proc *p = myproc();
    80002110:	fffff097          	auipc	ra,0xfffff
    80002114:	f86080e7          	jalr	-122(ra) # 80001096 <myproc>
  switch (n) {
    80002118:	4795                	li	a5,5
    8000211a:	0497e163          	bltu	a5,s1,8000215c <argraw+0x58>
    8000211e:	048a                	slli	s1,s1,0x2
    80002120:	00006717          	auipc	a4,0x6
    80002124:	62070713          	addi	a4,a4,1568 # 80008740 <states.0+0x30>
    80002128:	94ba                	add	s1,s1,a4
    8000212a:	409c                	lw	a5,0(s1)
    8000212c:	97ba                	add	a5,a5,a4
    8000212e:	8782                	jr	a5
  case 0:
    return p->trapframe->a0;
    80002130:	6d3c                	ld	a5,88(a0)
    80002132:	7ba8                	ld	a0,112(a5)
  case 5:
    return p->trapframe->a5;
  }
  panic("argraw");
  return -1;
}
    80002134:	60e2                	ld	ra,24(sp)
    80002136:	6442                	ld	s0,16(sp)
    80002138:	64a2                	ld	s1,8(sp)
    8000213a:	6105                	addi	sp,sp,32
    8000213c:	8082                	ret
    return p->trapframe->a1;
    8000213e:	6d3c                	ld	a5,88(a0)
    80002140:	7fa8                	ld	a0,120(a5)
    80002142:	bfcd                	j	80002134 <argraw+0x30>
    return p->trapframe->a2;
    80002144:	6d3c                	ld	a5,88(a0)
    80002146:	63c8                	ld	a0,128(a5)
    80002148:	b7f5                	j	80002134 <argraw+0x30>
    return p->trapframe->a3;
    8000214a:	6d3c                	ld	a5,88(a0)
    8000214c:	67c8                	ld	a0,136(a5)
    8000214e:	b7dd                	j	80002134 <argraw+0x30>
    return p->trapframe->a4;
    80002150:	6d3c                	ld	a5,88(a0)
    80002152:	6bc8                	ld	a0,144(a5)
    80002154:	b7c5                	j	80002134 <argraw+0x30>
    return p->trapframe->a5;
    80002156:	6d3c                	ld	a5,88(a0)
    80002158:	6fc8                	ld	a0,152(a5)
    8000215a:	bfe9                	j	80002134 <argraw+0x30>
  panic("argraw");
    8000215c:	00006517          	auipc	a0,0x6
    80002160:	20c50513          	addi	a0,a0,524 # 80008368 <etext+0x368>
    80002164:	00004097          	auipc	ra,0x4
    80002168:	dae080e7          	jalr	-594(ra) # 80005f12 <panic>

000000008000216c <fetchaddr>:
{
    8000216c:	1101                	addi	sp,sp,-32
    8000216e:	ec06                	sd	ra,24(sp)
    80002170:	e822                	sd	s0,16(sp)
    80002172:	e426                	sd	s1,8(sp)
    80002174:	e04a                	sd	s2,0(sp)
    80002176:	1000                	addi	s0,sp,32
    80002178:	84aa                	mv	s1,a0
    8000217a:	892e                	mv	s2,a1
  struct proc *p = myproc();
    8000217c:	fffff097          	auipc	ra,0xfffff
    80002180:	f1a080e7          	jalr	-230(ra) # 80001096 <myproc>
  if(addr >= p->sz || addr+sizeof(uint64) > p->sz)
    80002184:	653c                	ld	a5,72(a0)
    80002186:	02f4f863          	bgeu	s1,a5,800021b6 <fetchaddr+0x4a>
    8000218a:	00848713          	addi	a4,s1,8
    8000218e:	02e7e663          	bltu	a5,a4,800021ba <fetchaddr+0x4e>
  if(copyin(p->pagetable, (char *)ip, addr, sizeof(*ip)) != 0)
    80002192:	46a1                	li	a3,8
    80002194:	8626                	mv	a2,s1
    80002196:	85ca                	mv	a1,s2
    80002198:	6928                	ld	a0,80(a0)
    8000219a:	fffff097          	auipc	ra,0xfffff
    8000219e:	c34080e7          	jalr	-972(ra) # 80000dce <copyin>
    800021a2:	00a03533          	snez	a0,a0
    800021a6:	40a0053b          	negw	a0,a0
}
    800021aa:	60e2                	ld	ra,24(sp)
    800021ac:	6442                	ld	s0,16(sp)
    800021ae:	64a2                	ld	s1,8(sp)
    800021b0:	6902                	ld	s2,0(sp)
    800021b2:	6105                	addi	sp,sp,32
    800021b4:	8082                	ret
    return -1;
    800021b6:	557d                	li	a0,-1
    800021b8:	bfcd                	j	800021aa <fetchaddr+0x3e>
    800021ba:	557d                	li	a0,-1
    800021bc:	b7fd                	j	800021aa <fetchaddr+0x3e>

00000000800021be <fetchstr>:
{
    800021be:	7179                	addi	sp,sp,-48
    800021c0:	f406                	sd	ra,40(sp)
    800021c2:	f022                	sd	s0,32(sp)
    800021c4:	ec26                	sd	s1,24(sp)
    800021c6:	e84a                	sd	s2,16(sp)
    800021c8:	e44e                	sd	s3,8(sp)
    800021ca:	1800                	addi	s0,sp,48
    800021cc:	892a                	mv	s2,a0
    800021ce:	84ae                	mv	s1,a1
    800021d0:	89b2                	mv	s3,a2
  struct proc *p = myproc();
    800021d2:	fffff097          	auipc	ra,0xfffff
    800021d6:	ec4080e7          	jalr	-316(ra) # 80001096 <myproc>
  int err = copyinstr(p->pagetable, buf, addr, max);
    800021da:	86ce                	mv	a3,s3
    800021dc:	864a                	mv	a2,s2
    800021de:	85a6                	mv	a1,s1
    800021e0:	6928                	ld	a0,80(a0)
    800021e2:	fffff097          	auipc	ra,0xfffff
    800021e6:	c7a080e7          	jalr	-902(ra) # 80000e5c <copyinstr>
  if(err < 0)
    800021ea:	00054763          	bltz	a0,800021f8 <fetchstr+0x3a>
  return strlen(buf);
    800021ee:	8526                	mv	a0,s1
    800021f0:	ffffe097          	auipc	ra,0xffffe
    800021f4:	254080e7          	jalr	596(ra) # 80000444 <strlen>
}
    800021f8:	70a2                	ld	ra,40(sp)
    800021fa:	7402                	ld	s0,32(sp)
    800021fc:	64e2                	ld	s1,24(sp)
    800021fe:	6942                	ld	s2,16(sp)
    80002200:	69a2                	ld	s3,8(sp)
    80002202:	6145                	addi	sp,sp,48
    80002204:	8082                	ret

0000000080002206 <argint>:

// Fetch the nth 32-bit system call argument.
int
argint(int n, int *ip)
{
    80002206:	1101                	addi	sp,sp,-32
    80002208:	ec06                	sd	ra,24(sp)
    8000220a:	e822                	sd	s0,16(sp)
    8000220c:	e426                	sd	s1,8(sp)
    8000220e:	1000                	addi	s0,sp,32
    80002210:	84ae                	mv	s1,a1
  *ip = argraw(n);
    80002212:	00000097          	auipc	ra,0x0
    80002216:	ef2080e7          	jalr	-270(ra) # 80002104 <argraw>
    8000221a:	c088                	sw	a0,0(s1)
  return 0;
}
    8000221c:	4501                	li	a0,0
    8000221e:	60e2                	ld	ra,24(sp)
    80002220:	6442                	ld	s0,16(sp)
    80002222:	64a2                	ld	s1,8(sp)
    80002224:	6105                	addi	sp,sp,32
    80002226:	8082                	ret

0000000080002228 <argaddr>:
// Retrieve an argument as a pointer.
// Doesn't check for legality, since
// copyin/copyout will do that.
int
argaddr(int n, uint64 *ip)
{
    80002228:	1101                	addi	sp,sp,-32
    8000222a:	ec06                	sd	ra,24(sp)
    8000222c:	e822                	sd	s0,16(sp)
    8000222e:	e426                	sd	s1,8(sp)
    80002230:	1000                	addi	s0,sp,32
    80002232:	84ae                	mv	s1,a1
  *ip = argraw(n);
    80002234:	00000097          	auipc	ra,0x0
    80002238:	ed0080e7          	jalr	-304(ra) # 80002104 <argraw>
    8000223c:	e088                	sd	a0,0(s1)
  return 0;
}
    8000223e:	4501                	li	a0,0
    80002240:	60e2                	ld	ra,24(sp)
    80002242:	6442                	ld	s0,16(sp)
    80002244:	64a2                	ld	s1,8(sp)
    80002246:	6105                	addi	sp,sp,32
    80002248:	8082                	ret

000000008000224a <argstr>:
// Fetch the nth word-sized system call argument as a null-terminated string.
// Copies into buf, at most max.
// Returns string length if OK (including nul), -1 if error.
int
argstr(int n, char *buf, int max)
{
    8000224a:	1101                	addi	sp,sp,-32
    8000224c:	ec06                	sd	ra,24(sp)
    8000224e:	e822                	sd	s0,16(sp)
    80002250:	e426                	sd	s1,8(sp)
    80002252:	e04a                	sd	s2,0(sp)
    80002254:	1000                	addi	s0,sp,32
    80002256:	84ae                	mv	s1,a1
    80002258:	8932                	mv	s2,a2
  *ip = argraw(n);
    8000225a:	00000097          	auipc	ra,0x0
    8000225e:	eaa080e7          	jalr	-342(ra) # 80002104 <argraw>
  uint64 addr;
  if(argaddr(n, &addr) < 0)
    return -1;
  return fetchstr(addr, buf, max);
    80002262:	864a                	mv	a2,s2
    80002264:	85a6                	mv	a1,s1
    80002266:	00000097          	auipc	ra,0x0
    8000226a:	f58080e7          	jalr	-168(ra) # 800021be <fetchstr>
}
    8000226e:	60e2                	ld	ra,24(sp)
    80002270:	6442                	ld	s0,16(sp)
    80002272:	64a2                	ld	s1,8(sp)
    80002274:	6902                	ld	s2,0(sp)
    80002276:	6105                	addi	sp,sp,32
    80002278:	8082                	ret

000000008000227a <syscall>:
[SYS_close]   sys_close,
};

void
syscall(void)
{
    8000227a:	1101                	addi	sp,sp,-32
    8000227c:	ec06                	sd	ra,24(sp)
    8000227e:	e822                	sd	s0,16(sp)
    80002280:	e426                	sd	s1,8(sp)
    80002282:	e04a                	sd	s2,0(sp)
    80002284:	1000                	addi	s0,sp,32
  int num;
  struct proc *p = myproc();
    80002286:	fffff097          	auipc	ra,0xfffff
    8000228a:	e10080e7          	jalr	-496(ra) # 80001096 <myproc>
    8000228e:	84aa                	mv	s1,a0

  num = p->trapframe->a7;
    80002290:	05853903          	ld	s2,88(a0)
    80002294:	0a893783          	ld	a5,168(s2)
    80002298:	0007869b          	sext.w	a3,a5
  if(num > 0 && num < NELEM(syscalls) && syscalls[num]) {
    8000229c:	37fd                	addiw	a5,a5,-1
    8000229e:	4751                	li	a4,20
    800022a0:	00f76f63          	bltu	a4,a5,800022be <syscall+0x44>
    800022a4:	00369713          	slli	a4,a3,0x3
    800022a8:	00006797          	auipc	a5,0x6
    800022ac:	4b078793          	addi	a5,a5,1200 # 80008758 <syscalls>
    800022b0:	97ba                	add	a5,a5,a4
    800022b2:	639c                	ld	a5,0(a5)
    800022b4:	c789                	beqz	a5,800022be <syscall+0x44>
    p->trapframe->a0 = syscalls[num]();
    800022b6:	9782                	jalr	a5
    800022b8:	06a93823          	sd	a0,112(s2)
    800022bc:	a839                	j	800022da <syscall+0x60>
  } else {
    printf("%d %s: unknown sys call %d\n",
    800022be:	15848613          	addi	a2,s1,344
    800022c2:	588c                	lw	a1,48(s1)
    800022c4:	00006517          	auipc	a0,0x6
    800022c8:	0ac50513          	addi	a0,a0,172 # 80008370 <etext+0x370>
    800022cc:	00004097          	auipc	ra,0x4
    800022d0:	c90080e7          	jalr	-880(ra) # 80005f5c <printf>
            p->pid, p->name, num);
    p->trapframe->a0 = -1;
    800022d4:	6cbc                	ld	a5,88(s1)
    800022d6:	577d                	li	a4,-1
    800022d8:	fbb8                	sd	a4,112(a5)
  }
}
    800022da:	60e2                	ld	ra,24(sp)
    800022dc:	6442                	ld	s0,16(sp)
    800022de:	64a2                	ld	s1,8(sp)
    800022e0:	6902                	ld	s2,0(sp)
    800022e2:	6105                	addi	sp,sp,32
    800022e4:	8082                	ret

00000000800022e6 <sys_exit>:
#include "spinlock.h"
#include "proc.h"

uint64
sys_exit(void)
{
    800022e6:	1101                	addi	sp,sp,-32
    800022e8:	ec06                	sd	ra,24(sp)
    800022ea:	e822                	sd	s0,16(sp)
    800022ec:	1000                	addi	s0,sp,32
  int n;
  if(argint(0, &n) < 0)
    800022ee:	fec40593          	addi	a1,s0,-20
    800022f2:	4501                	li	a0,0
    800022f4:	00000097          	auipc	ra,0x0
    800022f8:	f12080e7          	jalr	-238(ra) # 80002206 <argint>
    return -1;
    800022fc:	57fd                	li	a5,-1
  if(argint(0, &n) < 0)
    800022fe:	00054963          	bltz	a0,80002310 <sys_exit+0x2a>
  exit(n);
    80002302:	fec42503          	lw	a0,-20(s0)
    80002306:	fffff097          	auipc	ra,0xfffff
    8000230a:	6ac080e7          	jalr	1708(ra) # 800019b2 <exit>
  return 0;  // not reached
    8000230e:	4781                	li	a5,0
}
    80002310:	853e                	mv	a0,a5
    80002312:	60e2                	ld	ra,24(sp)
    80002314:	6442                	ld	s0,16(sp)
    80002316:	6105                	addi	sp,sp,32
    80002318:	8082                	ret

000000008000231a <sys_getpid>:

uint64
sys_getpid(void)
{
    8000231a:	1141                	addi	sp,sp,-16
    8000231c:	e406                	sd	ra,8(sp)
    8000231e:	e022                	sd	s0,0(sp)
    80002320:	0800                	addi	s0,sp,16
  return myproc()->pid;
    80002322:	fffff097          	auipc	ra,0xfffff
    80002326:	d74080e7          	jalr	-652(ra) # 80001096 <myproc>
}
    8000232a:	5908                	lw	a0,48(a0)
    8000232c:	60a2                	ld	ra,8(sp)
    8000232e:	6402                	ld	s0,0(sp)
    80002330:	0141                	addi	sp,sp,16
    80002332:	8082                	ret

0000000080002334 <sys_fork>:

uint64
sys_fork(void)
{
    80002334:	1141                	addi	sp,sp,-16
    80002336:	e406                	sd	ra,8(sp)
    80002338:	e022                	sd	s0,0(sp)
    8000233a:	0800                	addi	s0,sp,16
  return fork();
    8000233c:	fffff097          	auipc	ra,0xfffff
    80002340:	12c080e7          	jalr	300(ra) # 80001468 <fork>
}
    80002344:	60a2                	ld	ra,8(sp)
    80002346:	6402                	ld	s0,0(sp)
    80002348:	0141                	addi	sp,sp,16
    8000234a:	8082                	ret

000000008000234c <sys_wait>:

uint64
sys_wait(void)
{
    8000234c:	1101                	addi	sp,sp,-32
    8000234e:	ec06                	sd	ra,24(sp)
    80002350:	e822                	sd	s0,16(sp)
    80002352:	1000                	addi	s0,sp,32
  uint64 p;
  if(argaddr(0, &p) < 0)
    80002354:	fe840593          	addi	a1,s0,-24
    80002358:	4501                	li	a0,0
    8000235a:	00000097          	auipc	ra,0x0
    8000235e:	ece080e7          	jalr	-306(ra) # 80002228 <argaddr>
    80002362:	87aa                	mv	a5,a0
    return -1;
    80002364:	557d                	li	a0,-1
  if(argaddr(0, &p) < 0)
    80002366:	0007c863          	bltz	a5,80002376 <sys_wait+0x2a>
  return wait(p);
    8000236a:	fe843503          	ld	a0,-24(s0)
    8000236e:	fffff097          	auipc	ra,0xfffff
    80002372:	452080e7          	jalr	1106(ra) # 800017c0 <wait>
}
    80002376:	60e2                	ld	ra,24(sp)
    80002378:	6442                	ld	s0,16(sp)
    8000237a:	6105                	addi	sp,sp,32
    8000237c:	8082                	ret

000000008000237e <sys_sbrk>:

uint64
sys_sbrk(void)
{
    8000237e:	7179                	addi	sp,sp,-48
    80002380:	f406                	sd	ra,40(sp)
    80002382:	f022                	sd	s0,32(sp)
    80002384:	1800                	addi	s0,sp,48
  int addr;
  int n;

  if(argint(0, &n) < 0)
    80002386:	fdc40593          	addi	a1,s0,-36
    8000238a:	4501                	li	a0,0
    8000238c:	00000097          	auipc	ra,0x0
    80002390:	e7a080e7          	jalr	-390(ra) # 80002206 <argint>
    80002394:	87aa                	mv	a5,a0
    return -1;
    80002396:	557d                	li	a0,-1
  if(argint(0, &n) < 0)
    80002398:	0207c263          	bltz	a5,800023bc <sys_sbrk+0x3e>
    8000239c:	ec26                	sd	s1,24(sp)
  addr = myproc()->sz;
    8000239e:	fffff097          	auipc	ra,0xfffff
    800023a2:	cf8080e7          	jalr	-776(ra) # 80001096 <myproc>
    800023a6:	4524                	lw	s1,72(a0)
  if(growproc(n) < 0)
    800023a8:	fdc42503          	lw	a0,-36(s0)
    800023ac:	fffff097          	auipc	ra,0xfffff
    800023b0:	044080e7          	jalr	68(ra) # 800013f0 <growproc>
    800023b4:	00054863          	bltz	a0,800023c4 <sys_sbrk+0x46>
    return -1;
  return addr;
    800023b8:	8526                	mv	a0,s1
    800023ba:	64e2                	ld	s1,24(sp)
}
    800023bc:	70a2                	ld	ra,40(sp)
    800023be:	7402                	ld	s0,32(sp)
    800023c0:	6145                	addi	sp,sp,48
    800023c2:	8082                	ret
    return -1;
    800023c4:	557d                	li	a0,-1
    800023c6:	64e2                	ld	s1,24(sp)
    800023c8:	bfd5                	j	800023bc <sys_sbrk+0x3e>

00000000800023ca <sys_sleep>:

uint64
sys_sleep(void)
{
    800023ca:	7139                	addi	sp,sp,-64
    800023cc:	fc06                	sd	ra,56(sp)
    800023ce:	f822                	sd	s0,48(sp)
    800023d0:	0080                	addi	s0,sp,64
  int n;
  uint ticks0;

  if(argint(0, &n) < 0)
    800023d2:	fcc40593          	addi	a1,s0,-52
    800023d6:	4501                	li	a0,0
    800023d8:	00000097          	auipc	ra,0x0
    800023dc:	e2e080e7          	jalr	-466(ra) # 80002206 <argint>
    return -1;
    800023e0:	57fd                	li	a5,-1
  if(argint(0, &n) < 0)
    800023e2:	06054b63          	bltz	a0,80002458 <sys_sleep+0x8e>
    800023e6:	f04a                	sd	s2,32(sp)
  acquire(&tickslock);
    800023e8:	0024d517          	auipc	a0,0x24d
    800023ec:	ad050513          	addi	a0,a0,-1328 # 8024eeb8 <tickslock>
    800023f0:	00004097          	auipc	ra,0x4
    800023f4:	0a2080e7          	jalr	162(ra) # 80006492 <acquire>
  ticks0 = ticks;
    800023f8:	00007917          	auipc	s2,0x7
    800023fc:	c2092903          	lw	s2,-992(s2) # 80009018 <ticks>
  while(ticks - ticks0 < n){
    80002400:	fcc42783          	lw	a5,-52(s0)
    80002404:	c3a1                	beqz	a5,80002444 <sys_sleep+0x7a>
    80002406:	f426                	sd	s1,40(sp)
    80002408:	ec4e                	sd	s3,24(sp)
    if(myproc()->killed){
      release(&tickslock);
      return -1;
    }
    sleep(&ticks, &tickslock);
    8000240a:	0024d997          	auipc	s3,0x24d
    8000240e:	aae98993          	addi	s3,s3,-1362 # 8024eeb8 <tickslock>
    80002412:	00007497          	auipc	s1,0x7
    80002416:	c0648493          	addi	s1,s1,-1018 # 80009018 <ticks>
    if(myproc()->killed){
    8000241a:	fffff097          	auipc	ra,0xfffff
    8000241e:	c7c080e7          	jalr	-900(ra) # 80001096 <myproc>
    80002422:	551c                	lw	a5,40(a0)
    80002424:	ef9d                	bnez	a5,80002462 <sys_sleep+0x98>
    sleep(&ticks, &tickslock);
    80002426:	85ce                	mv	a1,s3
    80002428:	8526                	mv	a0,s1
    8000242a:	fffff097          	auipc	ra,0xfffff
    8000242e:	332080e7          	jalr	818(ra) # 8000175c <sleep>
  while(ticks - ticks0 < n){
    80002432:	409c                	lw	a5,0(s1)
    80002434:	412787bb          	subw	a5,a5,s2
    80002438:	fcc42703          	lw	a4,-52(s0)
    8000243c:	fce7efe3          	bltu	a5,a4,8000241a <sys_sleep+0x50>
    80002440:	74a2                	ld	s1,40(sp)
    80002442:	69e2                	ld	s3,24(sp)
  }
  release(&tickslock);
    80002444:	0024d517          	auipc	a0,0x24d
    80002448:	a7450513          	addi	a0,a0,-1420 # 8024eeb8 <tickslock>
    8000244c:	00004097          	auipc	ra,0x4
    80002450:	0f6080e7          	jalr	246(ra) # 80006542 <release>
  return 0;
    80002454:	4781                	li	a5,0
    80002456:	7902                	ld	s2,32(sp)
}
    80002458:	853e                	mv	a0,a5
    8000245a:	70e2                	ld	ra,56(sp)
    8000245c:	7442                	ld	s0,48(sp)
    8000245e:	6121                	addi	sp,sp,64
    80002460:	8082                	ret
      release(&tickslock);
    80002462:	0024d517          	auipc	a0,0x24d
    80002466:	a5650513          	addi	a0,a0,-1450 # 8024eeb8 <tickslock>
    8000246a:	00004097          	auipc	ra,0x4
    8000246e:	0d8080e7          	jalr	216(ra) # 80006542 <release>
      return -1;
    80002472:	57fd                	li	a5,-1
    80002474:	74a2                	ld	s1,40(sp)
    80002476:	7902                	ld	s2,32(sp)
    80002478:	69e2                	ld	s3,24(sp)
    8000247a:	bff9                	j	80002458 <sys_sleep+0x8e>

000000008000247c <sys_kill>:

uint64
sys_kill(void)
{
    8000247c:	1101                	addi	sp,sp,-32
    8000247e:	ec06                	sd	ra,24(sp)
    80002480:	e822                	sd	s0,16(sp)
    80002482:	1000                	addi	s0,sp,32
  int pid;

  if(argint(0, &pid) < 0)
    80002484:	fec40593          	addi	a1,s0,-20
    80002488:	4501                	li	a0,0
    8000248a:	00000097          	auipc	ra,0x0
    8000248e:	d7c080e7          	jalr	-644(ra) # 80002206 <argint>
    80002492:	87aa                	mv	a5,a0
    return -1;
    80002494:	557d                	li	a0,-1
  if(argint(0, &pid) < 0)
    80002496:	0007c863          	bltz	a5,800024a6 <sys_kill+0x2a>
  return kill(pid);
    8000249a:	fec42503          	lw	a0,-20(s0)
    8000249e:	fffff097          	auipc	ra,0xfffff
    800024a2:	5ea080e7          	jalr	1514(ra) # 80001a88 <kill>
}
    800024a6:	60e2                	ld	ra,24(sp)
    800024a8:	6442                	ld	s0,16(sp)
    800024aa:	6105                	addi	sp,sp,32
    800024ac:	8082                	ret

00000000800024ae <sys_uptime>:

// return how many clock tick interrupts have occurred
// since start.
uint64
sys_uptime(void)
{
    800024ae:	1101                	addi	sp,sp,-32
    800024b0:	ec06                	sd	ra,24(sp)
    800024b2:	e822                	sd	s0,16(sp)
    800024b4:	e426                	sd	s1,8(sp)
    800024b6:	1000                	addi	s0,sp,32
  uint xticks;

  acquire(&tickslock);
    800024b8:	0024d517          	auipc	a0,0x24d
    800024bc:	a0050513          	addi	a0,a0,-1536 # 8024eeb8 <tickslock>
    800024c0:	00004097          	auipc	ra,0x4
    800024c4:	fd2080e7          	jalr	-46(ra) # 80006492 <acquire>
  xticks = ticks;
    800024c8:	00007497          	auipc	s1,0x7
    800024cc:	b504a483          	lw	s1,-1200(s1) # 80009018 <ticks>
  release(&tickslock);
    800024d0:	0024d517          	auipc	a0,0x24d
    800024d4:	9e850513          	addi	a0,a0,-1560 # 8024eeb8 <tickslock>
    800024d8:	00004097          	auipc	ra,0x4
    800024dc:	06a080e7          	jalr	106(ra) # 80006542 <release>
  return xticks;
}
    800024e0:	02049513          	slli	a0,s1,0x20
    800024e4:	9101                	srli	a0,a0,0x20
    800024e6:	60e2                	ld	ra,24(sp)
    800024e8:	6442                	ld	s0,16(sp)
    800024ea:	64a2                	ld	s1,8(sp)
    800024ec:	6105                	addi	sp,sp,32
    800024ee:	8082                	ret

00000000800024f0 <binit>:
  struct buf head;
} bcache;

void
binit(void)
{
    800024f0:	7179                	addi	sp,sp,-48
    800024f2:	f406                	sd	ra,40(sp)
    800024f4:	f022                	sd	s0,32(sp)
    800024f6:	ec26                	sd	s1,24(sp)
    800024f8:	e84a                	sd	s2,16(sp)
    800024fa:	e44e                	sd	s3,8(sp)
    800024fc:	e052                	sd	s4,0(sp)
    800024fe:	1800                	addi	s0,sp,48
  struct buf *b;

  initlock(&bcache.lock, "bcache");
    80002500:	00006597          	auipc	a1,0x6
    80002504:	e9058593          	addi	a1,a1,-368 # 80008390 <etext+0x390>
    80002508:	0024d517          	auipc	a0,0x24d
    8000250c:	9c850513          	addi	a0,a0,-1592 # 8024eed0 <bcache>
    80002510:	00004097          	auipc	ra,0x4
    80002514:	eee080e7          	jalr	-274(ra) # 800063fe <initlock>

  // Create linked list of buffers
  bcache.head.prev = &bcache.head;
    80002518:	00255797          	auipc	a5,0x255
    8000251c:	9b878793          	addi	a5,a5,-1608 # 80256ed0 <bcache+0x8000>
    80002520:	00255717          	auipc	a4,0x255
    80002524:	c1870713          	addi	a4,a4,-1000 # 80257138 <bcache+0x8268>
    80002528:	2ae7b823          	sd	a4,688(a5)
  bcache.head.next = &bcache.head;
    8000252c:	2ae7bc23          	sd	a4,696(a5)
  for(b = bcache.buf; b < bcache.buf+NBUF; b++){
    80002530:	0024d497          	auipc	s1,0x24d
    80002534:	9b848493          	addi	s1,s1,-1608 # 8024eee8 <bcache+0x18>
    b->next = bcache.head.next;
    80002538:	893e                	mv	s2,a5
    b->prev = &bcache.head;
    8000253a:	89ba                	mv	s3,a4
    initsleeplock(&b->lock, "buffer");
    8000253c:	00006a17          	auipc	s4,0x6
    80002540:	e5ca0a13          	addi	s4,s4,-420 # 80008398 <etext+0x398>
    b->next = bcache.head.next;
    80002544:	2b893783          	ld	a5,696(s2)
    80002548:	e8bc                	sd	a5,80(s1)
    b->prev = &bcache.head;
    8000254a:	0534b423          	sd	s3,72(s1)
    initsleeplock(&b->lock, "buffer");
    8000254e:	85d2                	mv	a1,s4
    80002550:	01048513          	addi	a0,s1,16
    80002554:	00001097          	auipc	ra,0x1
    80002558:	4ba080e7          	jalr	1210(ra) # 80003a0e <initsleeplock>
    bcache.head.next->prev = b;
    8000255c:	2b893783          	ld	a5,696(s2)
    80002560:	e7a4                	sd	s1,72(a5)
    bcache.head.next = b;
    80002562:	2a993c23          	sd	s1,696(s2)
  for(b = bcache.buf; b < bcache.buf+NBUF; b++){
    80002566:	45848493          	addi	s1,s1,1112
    8000256a:	fd349de3          	bne	s1,s3,80002544 <binit+0x54>
  }
}
    8000256e:	70a2                	ld	ra,40(sp)
    80002570:	7402                	ld	s0,32(sp)
    80002572:	64e2                	ld	s1,24(sp)
    80002574:	6942                	ld	s2,16(sp)
    80002576:	69a2                	ld	s3,8(sp)
    80002578:	6a02                	ld	s4,0(sp)
    8000257a:	6145                	addi	sp,sp,48
    8000257c:	8082                	ret

000000008000257e <bread>:
}

// Return a locked buf with the contents of the indicated block.
struct buf*
bread(uint dev, uint blockno)
{
    8000257e:	7179                	addi	sp,sp,-48
    80002580:	f406                	sd	ra,40(sp)
    80002582:	f022                	sd	s0,32(sp)
    80002584:	ec26                	sd	s1,24(sp)
    80002586:	e84a                	sd	s2,16(sp)
    80002588:	e44e                	sd	s3,8(sp)
    8000258a:	1800                	addi	s0,sp,48
    8000258c:	892a                	mv	s2,a0
    8000258e:	89ae                	mv	s3,a1
  acquire(&bcache.lock);
    80002590:	0024d517          	auipc	a0,0x24d
    80002594:	94050513          	addi	a0,a0,-1728 # 8024eed0 <bcache>
    80002598:	00004097          	auipc	ra,0x4
    8000259c:	efa080e7          	jalr	-262(ra) # 80006492 <acquire>
  for(b = bcache.head.next; b != &bcache.head; b = b->next){
    800025a0:	00255497          	auipc	s1,0x255
    800025a4:	be84b483          	ld	s1,-1048(s1) # 80257188 <bcache+0x82b8>
    800025a8:	00255797          	auipc	a5,0x255
    800025ac:	b9078793          	addi	a5,a5,-1136 # 80257138 <bcache+0x8268>
    800025b0:	02f48f63          	beq	s1,a5,800025ee <bread+0x70>
    800025b4:	873e                	mv	a4,a5
    800025b6:	a021                	j	800025be <bread+0x40>
    800025b8:	68a4                	ld	s1,80(s1)
    800025ba:	02e48a63          	beq	s1,a4,800025ee <bread+0x70>
    if(b->dev == dev && b->blockno == blockno){
    800025be:	449c                	lw	a5,8(s1)
    800025c0:	ff279ce3          	bne	a5,s2,800025b8 <bread+0x3a>
    800025c4:	44dc                	lw	a5,12(s1)
    800025c6:	ff3799e3          	bne	a5,s3,800025b8 <bread+0x3a>
      b->refcnt++;
    800025ca:	40bc                	lw	a5,64(s1)
    800025cc:	2785                	addiw	a5,a5,1
    800025ce:	c0bc                	sw	a5,64(s1)
      release(&bcache.lock);
    800025d0:	0024d517          	auipc	a0,0x24d
    800025d4:	90050513          	addi	a0,a0,-1792 # 8024eed0 <bcache>
    800025d8:	00004097          	auipc	ra,0x4
    800025dc:	f6a080e7          	jalr	-150(ra) # 80006542 <release>
      acquiresleep(&b->lock);
    800025e0:	01048513          	addi	a0,s1,16
    800025e4:	00001097          	auipc	ra,0x1
    800025e8:	464080e7          	jalr	1124(ra) # 80003a48 <acquiresleep>
      return b;
    800025ec:	a8b9                	j	8000264a <bread+0xcc>
  for(b = bcache.head.prev; b != &bcache.head; b = b->prev){
    800025ee:	00255497          	auipc	s1,0x255
    800025f2:	b924b483          	ld	s1,-1134(s1) # 80257180 <bcache+0x82b0>
    800025f6:	00255797          	auipc	a5,0x255
    800025fa:	b4278793          	addi	a5,a5,-1214 # 80257138 <bcache+0x8268>
    800025fe:	00f48863          	beq	s1,a5,8000260e <bread+0x90>
    80002602:	873e                	mv	a4,a5
    if(b->refcnt == 0) {
    80002604:	40bc                	lw	a5,64(s1)
    80002606:	cf81                	beqz	a5,8000261e <bread+0xa0>
  for(b = bcache.head.prev; b != &bcache.head; b = b->prev){
    80002608:	64a4                	ld	s1,72(s1)
    8000260a:	fee49de3          	bne	s1,a4,80002604 <bread+0x86>
  panic("bget: no buffers");
    8000260e:	00006517          	auipc	a0,0x6
    80002612:	d9250513          	addi	a0,a0,-622 # 800083a0 <etext+0x3a0>
    80002616:	00004097          	auipc	ra,0x4
    8000261a:	8fc080e7          	jalr	-1796(ra) # 80005f12 <panic>
      b->dev = dev;
    8000261e:	0124a423          	sw	s2,8(s1)
      b->blockno = blockno;
    80002622:	0134a623          	sw	s3,12(s1)
      b->valid = 0;
    80002626:	0004a023          	sw	zero,0(s1)
      b->refcnt = 1;
    8000262a:	4785                	li	a5,1
    8000262c:	c0bc                	sw	a5,64(s1)
      release(&bcache.lock);
    8000262e:	0024d517          	auipc	a0,0x24d
    80002632:	8a250513          	addi	a0,a0,-1886 # 8024eed0 <bcache>
    80002636:	00004097          	auipc	ra,0x4
    8000263a:	f0c080e7          	jalr	-244(ra) # 80006542 <release>
      acquiresleep(&b->lock);
    8000263e:	01048513          	addi	a0,s1,16
    80002642:	00001097          	auipc	ra,0x1
    80002646:	406080e7          	jalr	1030(ra) # 80003a48 <acquiresleep>
  struct buf *b;

  b = bget(dev, blockno);
  if(!b->valid) {
    8000264a:	409c                	lw	a5,0(s1)
    8000264c:	cb89                	beqz	a5,8000265e <bread+0xe0>
    virtio_disk_rw(b, 0);
    b->valid = 1;
  }
  return b;
}
    8000264e:	8526                	mv	a0,s1
    80002650:	70a2                	ld	ra,40(sp)
    80002652:	7402                	ld	s0,32(sp)
    80002654:	64e2                	ld	s1,24(sp)
    80002656:	6942                	ld	s2,16(sp)
    80002658:	69a2                	ld	s3,8(sp)
    8000265a:	6145                	addi	sp,sp,48
    8000265c:	8082                	ret
    virtio_disk_rw(b, 0);
    8000265e:	4581                	li	a1,0
    80002660:	8526                	mv	a0,s1
    80002662:	00003097          	auipc	ra,0x3
    80002666:	01c080e7          	jalr	28(ra) # 8000567e <virtio_disk_rw>
    b->valid = 1;
    8000266a:	4785                	li	a5,1
    8000266c:	c09c                	sw	a5,0(s1)
  return b;
    8000266e:	b7c5                	j	8000264e <bread+0xd0>

0000000080002670 <bwrite>:

// Write b's contents to disk.  Must be locked.
void
bwrite(struct buf *b)
{
    80002670:	1101                	addi	sp,sp,-32
    80002672:	ec06                	sd	ra,24(sp)
    80002674:	e822                	sd	s0,16(sp)
    80002676:	e426                	sd	s1,8(sp)
    80002678:	1000                	addi	s0,sp,32
    8000267a:	84aa                	mv	s1,a0
  if(!holdingsleep(&b->lock))
    8000267c:	0541                	addi	a0,a0,16
    8000267e:	00001097          	auipc	ra,0x1
    80002682:	464080e7          	jalr	1124(ra) # 80003ae2 <holdingsleep>
    80002686:	cd01                	beqz	a0,8000269e <bwrite+0x2e>
    panic("bwrite");
  virtio_disk_rw(b, 1);
    80002688:	4585                	li	a1,1
    8000268a:	8526                	mv	a0,s1
    8000268c:	00003097          	auipc	ra,0x3
    80002690:	ff2080e7          	jalr	-14(ra) # 8000567e <virtio_disk_rw>
}
    80002694:	60e2                	ld	ra,24(sp)
    80002696:	6442                	ld	s0,16(sp)
    80002698:	64a2                	ld	s1,8(sp)
    8000269a:	6105                	addi	sp,sp,32
    8000269c:	8082                	ret
    panic("bwrite");
    8000269e:	00006517          	auipc	a0,0x6
    800026a2:	d1a50513          	addi	a0,a0,-742 # 800083b8 <etext+0x3b8>
    800026a6:	00004097          	auipc	ra,0x4
    800026aa:	86c080e7          	jalr	-1940(ra) # 80005f12 <panic>

00000000800026ae <brelse>:

// Release a locked buffer.
// Move to the head of the most-recently-used list.
void
brelse(struct buf *b)
{
    800026ae:	1101                	addi	sp,sp,-32
    800026b0:	ec06                	sd	ra,24(sp)
    800026b2:	e822                	sd	s0,16(sp)
    800026b4:	e426                	sd	s1,8(sp)
    800026b6:	e04a                	sd	s2,0(sp)
    800026b8:	1000                	addi	s0,sp,32
    800026ba:	84aa                	mv	s1,a0
  if(!holdingsleep(&b->lock))
    800026bc:	01050913          	addi	s2,a0,16
    800026c0:	854a                	mv	a0,s2
    800026c2:	00001097          	auipc	ra,0x1
    800026c6:	420080e7          	jalr	1056(ra) # 80003ae2 <holdingsleep>
    800026ca:	c535                	beqz	a0,80002736 <brelse+0x88>
    panic("brelse");

  releasesleep(&b->lock);
    800026cc:	854a                	mv	a0,s2
    800026ce:	00001097          	auipc	ra,0x1
    800026d2:	3d0080e7          	jalr	976(ra) # 80003a9e <releasesleep>

  acquire(&bcache.lock);
    800026d6:	0024c517          	auipc	a0,0x24c
    800026da:	7fa50513          	addi	a0,a0,2042 # 8024eed0 <bcache>
    800026de:	00004097          	auipc	ra,0x4
    800026e2:	db4080e7          	jalr	-588(ra) # 80006492 <acquire>
  b->refcnt--;
    800026e6:	40bc                	lw	a5,64(s1)
    800026e8:	37fd                	addiw	a5,a5,-1
    800026ea:	c0bc                	sw	a5,64(s1)
  if (b->refcnt == 0) {
    800026ec:	e79d                	bnez	a5,8000271a <brelse+0x6c>
    // no one is waiting for it.
    b->next->prev = b->prev;
    800026ee:	68b8                	ld	a4,80(s1)
    800026f0:	64bc                	ld	a5,72(s1)
    800026f2:	e73c                	sd	a5,72(a4)
    b->prev->next = b->next;
    800026f4:	68b8                	ld	a4,80(s1)
    800026f6:	ebb8                	sd	a4,80(a5)
    b->next = bcache.head.next;
    800026f8:	00254797          	auipc	a5,0x254
    800026fc:	7d878793          	addi	a5,a5,2008 # 80256ed0 <bcache+0x8000>
    80002700:	2b87b703          	ld	a4,696(a5)
    80002704:	e8b8                	sd	a4,80(s1)
    b->prev = &bcache.head;
    80002706:	00255717          	auipc	a4,0x255
    8000270a:	a3270713          	addi	a4,a4,-1486 # 80257138 <bcache+0x8268>
    8000270e:	e4b8                	sd	a4,72(s1)
    bcache.head.next->prev = b;
    80002710:	2b87b703          	ld	a4,696(a5)
    80002714:	e724                	sd	s1,72(a4)
    bcache.head.next = b;
    80002716:	2a97bc23          	sd	s1,696(a5)
  }
  
  release(&bcache.lock);
    8000271a:	0024c517          	auipc	a0,0x24c
    8000271e:	7b650513          	addi	a0,a0,1974 # 8024eed0 <bcache>
    80002722:	00004097          	auipc	ra,0x4
    80002726:	e20080e7          	jalr	-480(ra) # 80006542 <release>
}
    8000272a:	60e2                	ld	ra,24(sp)
    8000272c:	6442                	ld	s0,16(sp)
    8000272e:	64a2                	ld	s1,8(sp)
    80002730:	6902                	ld	s2,0(sp)
    80002732:	6105                	addi	sp,sp,32
    80002734:	8082                	ret
    panic("brelse");
    80002736:	00006517          	auipc	a0,0x6
    8000273a:	c8a50513          	addi	a0,a0,-886 # 800083c0 <etext+0x3c0>
    8000273e:	00003097          	auipc	ra,0x3
    80002742:	7d4080e7          	jalr	2004(ra) # 80005f12 <panic>

0000000080002746 <bpin>:

void
bpin(struct buf *b) {
    80002746:	1101                	addi	sp,sp,-32
    80002748:	ec06                	sd	ra,24(sp)
    8000274a:	e822                	sd	s0,16(sp)
    8000274c:	e426                	sd	s1,8(sp)
    8000274e:	1000                	addi	s0,sp,32
    80002750:	84aa                	mv	s1,a0
  acquire(&bcache.lock);
    80002752:	0024c517          	auipc	a0,0x24c
    80002756:	77e50513          	addi	a0,a0,1918 # 8024eed0 <bcache>
    8000275a:	00004097          	auipc	ra,0x4
    8000275e:	d38080e7          	jalr	-712(ra) # 80006492 <acquire>
  b->refcnt++;
    80002762:	40bc                	lw	a5,64(s1)
    80002764:	2785                	addiw	a5,a5,1
    80002766:	c0bc                	sw	a5,64(s1)
  release(&bcache.lock);
    80002768:	0024c517          	auipc	a0,0x24c
    8000276c:	76850513          	addi	a0,a0,1896 # 8024eed0 <bcache>
    80002770:	00004097          	auipc	ra,0x4
    80002774:	dd2080e7          	jalr	-558(ra) # 80006542 <release>
}
    80002778:	60e2                	ld	ra,24(sp)
    8000277a:	6442                	ld	s0,16(sp)
    8000277c:	64a2                	ld	s1,8(sp)
    8000277e:	6105                	addi	sp,sp,32
    80002780:	8082                	ret

0000000080002782 <bunpin>:

void
bunpin(struct buf *b) {
    80002782:	1101                	addi	sp,sp,-32
    80002784:	ec06                	sd	ra,24(sp)
    80002786:	e822                	sd	s0,16(sp)
    80002788:	e426                	sd	s1,8(sp)
    8000278a:	1000                	addi	s0,sp,32
    8000278c:	84aa                	mv	s1,a0
  acquire(&bcache.lock);
    8000278e:	0024c517          	auipc	a0,0x24c
    80002792:	74250513          	addi	a0,a0,1858 # 8024eed0 <bcache>
    80002796:	00004097          	auipc	ra,0x4
    8000279a:	cfc080e7          	jalr	-772(ra) # 80006492 <acquire>
  b->refcnt--;
    8000279e:	40bc                	lw	a5,64(s1)
    800027a0:	37fd                	addiw	a5,a5,-1
    800027a2:	c0bc                	sw	a5,64(s1)
  release(&bcache.lock);
    800027a4:	0024c517          	auipc	a0,0x24c
    800027a8:	72c50513          	addi	a0,a0,1836 # 8024eed0 <bcache>
    800027ac:	00004097          	auipc	ra,0x4
    800027b0:	d96080e7          	jalr	-618(ra) # 80006542 <release>
}
    800027b4:	60e2                	ld	ra,24(sp)
    800027b6:	6442                	ld	s0,16(sp)
    800027b8:	64a2                	ld	s1,8(sp)
    800027ba:	6105                	addi	sp,sp,32
    800027bc:	8082                	ret

00000000800027be <bfree>:
}

// Free a disk block.
static void
bfree(int dev, uint b)
{
    800027be:	1101                	addi	sp,sp,-32
    800027c0:	ec06                	sd	ra,24(sp)
    800027c2:	e822                	sd	s0,16(sp)
    800027c4:	e426                	sd	s1,8(sp)
    800027c6:	e04a                	sd	s2,0(sp)
    800027c8:	1000                	addi	s0,sp,32
    800027ca:	84ae                	mv	s1,a1
  struct buf *bp;
  int bi, m;

  bp = bread(dev, BBLOCK(b, sb));
    800027cc:	00d5d79b          	srliw	a5,a1,0xd
    800027d0:	00255597          	auipc	a1,0x255
    800027d4:	ddc5a583          	lw	a1,-548(a1) # 802575ac <sb+0x1c>
    800027d8:	9dbd                	addw	a1,a1,a5
    800027da:	00000097          	auipc	ra,0x0
    800027de:	da4080e7          	jalr	-604(ra) # 8000257e <bread>
  bi = b % BPB;
  m = 1 << (bi % 8);
    800027e2:	0074f713          	andi	a4,s1,7
    800027e6:	4785                	li	a5,1
    800027e8:	00e797bb          	sllw	a5,a5,a4
  bi = b % BPB;
    800027ec:	14ce                	slli	s1,s1,0x33
  if((bp->data[bi/8] & m) == 0)
    800027ee:	90d9                	srli	s1,s1,0x36
    800027f0:	00950733          	add	a4,a0,s1
    800027f4:	05874703          	lbu	a4,88(a4)
    800027f8:	00e7f6b3          	and	a3,a5,a4
    800027fc:	c69d                	beqz	a3,8000282a <bfree+0x6c>
    800027fe:	892a                	mv	s2,a0
    panic("freeing free block");
  bp->data[bi/8] &= ~m;
    80002800:	94aa                	add	s1,s1,a0
    80002802:	fff7c793          	not	a5,a5
    80002806:	8f7d                	and	a4,a4,a5
    80002808:	04e48c23          	sb	a4,88(s1)
  log_write(bp);
    8000280c:	00001097          	auipc	ra,0x1
    80002810:	11e080e7          	jalr	286(ra) # 8000392a <log_write>
  brelse(bp);
    80002814:	854a                	mv	a0,s2
    80002816:	00000097          	auipc	ra,0x0
    8000281a:	e98080e7          	jalr	-360(ra) # 800026ae <brelse>
}
    8000281e:	60e2                	ld	ra,24(sp)
    80002820:	6442                	ld	s0,16(sp)
    80002822:	64a2                	ld	s1,8(sp)
    80002824:	6902                	ld	s2,0(sp)
    80002826:	6105                	addi	sp,sp,32
    80002828:	8082                	ret
    panic("freeing free block");
    8000282a:	00006517          	auipc	a0,0x6
    8000282e:	b9e50513          	addi	a0,a0,-1122 # 800083c8 <etext+0x3c8>
    80002832:	00003097          	auipc	ra,0x3
    80002836:	6e0080e7          	jalr	1760(ra) # 80005f12 <panic>

000000008000283a <balloc>:
{
    8000283a:	715d                	addi	sp,sp,-80
    8000283c:	e486                	sd	ra,72(sp)
    8000283e:	e0a2                	sd	s0,64(sp)
    80002840:	fc26                	sd	s1,56(sp)
    80002842:	f84a                	sd	s2,48(sp)
    80002844:	f44e                	sd	s3,40(sp)
    80002846:	f052                	sd	s4,32(sp)
    80002848:	ec56                	sd	s5,24(sp)
    8000284a:	e85a                	sd	s6,16(sp)
    8000284c:	e45e                	sd	s7,8(sp)
    8000284e:	e062                	sd	s8,0(sp)
    80002850:	0880                	addi	s0,sp,80
  for(b = 0; b < sb.size; b += BPB){
    80002852:	00255797          	auipc	a5,0x255
    80002856:	d427a783          	lw	a5,-702(a5) # 80257594 <sb+0x4>
    8000285a:	c7c1                	beqz	a5,800028e2 <balloc+0xa8>
    8000285c:	8baa                	mv	s7,a0
    8000285e:	4a81                	li	s5,0
    bp = bread(dev, BBLOCK(b, sb));
    80002860:	00255b17          	auipc	s6,0x255
    80002864:	d30b0b13          	addi	s6,s6,-720 # 80257590 <sb>
      m = 1 << (bi % 8);
    80002868:	4985                	li	s3,1
    for(bi = 0; bi < BPB && b + bi < sb.size; bi++){
    8000286a:	6a09                	lui	s4,0x2
  for(b = 0; b < sb.size; b += BPB){
    8000286c:	6c09                	lui	s8,0x2
    8000286e:	a821                	j	80002886 <balloc+0x4c>
    brelse(bp);
    80002870:	854a                	mv	a0,s2
    80002872:	00000097          	auipc	ra,0x0
    80002876:	e3c080e7          	jalr	-452(ra) # 800026ae <brelse>
  for(b = 0; b < sb.size; b += BPB){
    8000287a:	015c0abb          	addw	s5,s8,s5
    8000287e:	004b2783          	lw	a5,4(s6)
    80002882:	06faf063          	bgeu	s5,a5,800028e2 <balloc+0xa8>
    bp = bread(dev, BBLOCK(b, sb));
    80002886:	41fad79b          	sraiw	a5,s5,0x1f
    8000288a:	0137d79b          	srliw	a5,a5,0x13
    8000288e:	015787bb          	addw	a5,a5,s5
    80002892:	40d7d79b          	sraiw	a5,a5,0xd
    80002896:	01cb2583          	lw	a1,28(s6)
    8000289a:	9dbd                	addw	a1,a1,a5
    8000289c:	855e                	mv	a0,s7
    8000289e:	00000097          	auipc	ra,0x0
    800028a2:	ce0080e7          	jalr	-800(ra) # 8000257e <bread>
    800028a6:	892a                	mv	s2,a0
    for(bi = 0; bi < BPB && b + bi < sb.size; bi++){
    800028a8:	004b2503          	lw	a0,4(s6)
    800028ac:	84d6                	mv	s1,s5
    800028ae:	4701                	li	a4,0
    800028b0:	fca4f0e3          	bgeu	s1,a0,80002870 <balloc+0x36>
      m = 1 << (bi % 8);
    800028b4:	00777693          	andi	a3,a4,7
    800028b8:	00d996bb          	sllw	a3,s3,a3
      if((bp->data[bi/8] & m) == 0){  // Is block free?
    800028bc:	41f7579b          	sraiw	a5,a4,0x1f
    800028c0:	01d7d79b          	srliw	a5,a5,0x1d
    800028c4:	9fb9                	addw	a5,a5,a4
    800028c6:	4037d79b          	sraiw	a5,a5,0x3
    800028ca:	00f90633          	add	a2,s2,a5
    800028ce:	05864603          	lbu	a2,88(a2) # 1058 <_entry-0x7fffefa8>
    800028d2:	00c6f5b3          	and	a1,a3,a2
    800028d6:	cd91                	beqz	a1,800028f2 <balloc+0xb8>
    for(bi = 0; bi < BPB && b + bi < sb.size; bi++){
    800028d8:	2705                	addiw	a4,a4,1
    800028da:	2485                	addiw	s1,s1,1
    800028dc:	fd471ae3          	bne	a4,s4,800028b0 <balloc+0x76>
    800028e0:	bf41                	j	80002870 <balloc+0x36>
  panic("balloc: out of blocks");
    800028e2:	00006517          	auipc	a0,0x6
    800028e6:	afe50513          	addi	a0,a0,-1282 # 800083e0 <etext+0x3e0>
    800028ea:	00003097          	auipc	ra,0x3
    800028ee:	628080e7          	jalr	1576(ra) # 80005f12 <panic>
        bp->data[bi/8] |= m;  // Mark block in use.
    800028f2:	97ca                	add	a5,a5,s2
    800028f4:	8e55                	or	a2,a2,a3
    800028f6:	04c78c23          	sb	a2,88(a5)
        log_write(bp);
    800028fa:	854a                	mv	a0,s2
    800028fc:	00001097          	auipc	ra,0x1
    80002900:	02e080e7          	jalr	46(ra) # 8000392a <log_write>
        brelse(bp);
    80002904:	854a                	mv	a0,s2
    80002906:	00000097          	auipc	ra,0x0
    8000290a:	da8080e7          	jalr	-600(ra) # 800026ae <brelse>
  bp = bread(dev, bno);
    8000290e:	85a6                	mv	a1,s1
    80002910:	855e                	mv	a0,s7
    80002912:	00000097          	auipc	ra,0x0
    80002916:	c6c080e7          	jalr	-916(ra) # 8000257e <bread>
    8000291a:	892a                	mv	s2,a0
  memset(bp->data, 0, BSIZE);
    8000291c:	40000613          	li	a2,1024
    80002920:	4581                	li	a1,0
    80002922:	05850513          	addi	a0,a0,88
    80002926:	ffffe097          	auipc	ra,0xffffe
    8000292a:	992080e7          	jalr	-1646(ra) # 800002b8 <memset>
  log_write(bp);
    8000292e:	854a                	mv	a0,s2
    80002930:	00001097          	auipc	ra,0x1
    80002934:	ffa080e7          	jalr	-6(ra) # 8000392a <log_write>
  brelse(bp);
    80002938:	854a                	mv	a0,s2
    8000293a:	00000097          	auipc	ra,0x0
    8000293e:	d74080e7          	jalr	-652(ra) # 800026ae <brelse>
}
    80002942:	8526                	mv	a0,s1
    80002944:	60a6                	ld	ra,72(sp)
    80002946:	6406                	ld	s0,64(sp)
    80002948:	74e2                	ld	s1,56(sp)
    8000294a:	7942                	ld	s2,48(sp)
    8000294c:	79a2                	ld	s3,40(sp)
    8000294e:	7a02                	ld	s4,32(sp)
    80002950:	6ae2                	ld	s5,24(sp)
    80002952:	6b42                	ld	s6,16(sp)
    80002954:	6ba2                	ld	s7,8(sp)
    80002956:	6c02                	ld	s8,0(sp)
    80002958:	6161                	addi	sp,sp,80
    8000295a:	8082                	ret

000000008000295c <bmap>:

// Return the disk block address of the nth block in inode ip.
// If there is no such block, bmap allocates one.
static uint
bmap(struct inode *ip, uint bn)
{
    8000295c:	7179                	addi	sp,sp,-48
    8000295e:	f406                	sd	ra,40(sp)
    80002960:	f022                	sd	s0,32(sp)
    80002962:	ec26                	sd	s1,24(sp)
    80002964:	e84a                	sd	s2,16(sp)
    80002966:	e44e                	sd	s3,8(sp)
    80002968:	1800                	addi	s0,sp,48
    8000296a:	892a                	mv	s2,a0
  uint addr, *a;
  struct buf *bp;

  if(bn < NDIRECT){
    8000296c:	47ad                	li	a5,11
    8000296e:	04b7fd63          	bgeu	a5,a1,800029c8 <bmap+0x6c>
    80002972:	e052                	sd	s4,0(sp)
    if((addr = ip->addrs[bn]) == 0)
      ip->addrs[bn] = addr = balloc(ip->dev);
    return addr;
  }
  bn -= NDIRECT;
    80002974:	ff45849b          	addiw	s1,a1,-12

  if(bn < NINDIRECT){
    80002978:	0ff00793          	li	a5,255
    8000297c:	0897ef63          	bltu	a5,s1,80002a1a <bmap+0xbe>
    // Load indirect block, allocating if necessary.
    if((addr = ip->addrs[NDIRECT]) == 0)
    80002980:	08052583          	lw	a1,128(a0)
    80002984:	c5a5                	beqz	a1,800029ec <bmap+0x90>
      ip->addrs[NDIRECT] = addr = balloc(ip->dev);
    bp = bread(ip->dev, addr);
    80002986:	00092503          	lw	a0,0(s2)
    8000298a:	00000097          	auipc	ra,0x0
    8000298e:	bf4080e7          	jalr	-1036(ra) # 8000257e <bread>
    80002992:	8a2a                	mv	s4,a0
    a = (uint*)bp->data;
    80002994:	05850793          	addi	a5,a0,88
    if((addr = a[bn]) == 0){
    80002998:	02049713          	slli	a4,s1,0x20
    8000299c:	01e75593          	srli	a1,a4,0x1e
    800029a0:	00b784b3          	add	s1,a5,a1
    800029a4:	0004a983          	lw	s3,0(s1)
    800029a8:	04098b63          	beqz	s3,800029fe <bmap+0xa2>
      a[bn] = addr = balloc(ip->dev);
      log_write(bp);
    }
    brelse(bp);
    800029ac:	8552                	mv	a0,s4
    800029ae:	00000097          	auipc	ra,0x0
    800029b2:	d00080e7          	jalr	-768(ra) # 800026ae <brelse>
    return addr;
    800029b6:	6a02                	ld	s4,0(sp)
  }

  panic("bmap: out of range");
}
    800029b8:	854e                	mv	a0,s3
    800029ba:	70a2                	ld	ra,40(sp)
    800029bc:	7402                	ld	s0,32(sp)
    800029be:	64e2                	ld	s1,24(sp)
    800029c0:	6942                	ld	s2,16(sp)
    800029c2:	69a2                	ld	s3,8(sp)
    800029c4:	6145                	addi	sp,sp,48
    800029c6:	8082                	ret
    if((addr = ip->addrs[bn]) == 0)
    800029c8:	02059793          	slli	a5,a1,0x20
    800029cc:	01e7d593          	srli	a1,a5,0x1e
    800029d0:	00b504b3          	add	s1,a0,a1
    800029d4:	0504a983          	lw	s3,80(s1)
    800029d8:	fe0990e3          	bnez	s3,800029b8 <bmap+0x5c>
      ip->addrs[bn] = addr = balloc(ip->dev);
    800029dc:	4108                	lw	a0,0(a0)
    800029de:	00000097          	auipc	ra,0x0
    800029e2:	e5c080e7          	jalr	-420(ra) # 8000283a <balloc>
    800029e6:	89aa                	mv	s3,a0
    800029e8:	c8a8                	sw	a0,80(s1)
    800029ea:	b7f9                	j	800029b8 <bmap+0x5c>
      ip->addrs[NDIRECT] = addr = balloc(ip->dev);
    800029ec:	4108                	lw	a0,0(a0)
    800029ee:	00000097          	auipc	ra,0x0
    800029f2:	e4c080e7          	jalr	-436(ra) # 8000283a <balloc>
    800029f6:	85aa                	mv	a1,a0
    800029f8:	08a92023          	sw	a0,128(s2)
    800029fc:	b769                	j	80002986 <bmap+0x2a>
      a[bn] = addr = balloc(ip->dev);
    800029fe:	00092503          	lw	a0,0(s2)
    80002a02:	00000097          	auipc	ra,0x0
    80002a06:	e38080e7          	jalr	-456(ra) # 8000283a <balloc>
    80002a0a:	89aa                	mv	s3,a0
    80002a0c:	c088                	sw	a0,0(s1)
      log_write(bp);
    80002a0e:	8552                	mv	a0,s4
    80002a10:	00001097          	auipc	ra,0x1
    80002a14:	f1a080e7          	jalr	-230(ra) # 8000392a <log_write>
    80002a18:	bf51                	j	800029ac <bmap+0x50>
  panic("bmap: out of range");
    80002a1a:	00006517          	auipc	a0,0x6
    80002a1e:	9de50513          	addi	a0,a0,-1570 # 800083f8 <etext+0x3f8>
    80002a22:	00003097          	auipc	ra,0x3
    80002a26:	4f0080e7          	jalr	1264(ra) # 80005f12 <panic>

0000000080002a2a <iget>:
{
    80002a2a:	7179                	addi	sp,sp,-48
    80002a2c:	f406                	sd	ra,40(sp)
    80002a2e:	f022                	sd	s0,32(sp)
    80002a30:	ec26                	sd	s1,24(sp)
    80002a32:	e84a                	sd	s2,16(sp)
    80002a34:	e44e                	sd	s3,8(sp)
    80002a36:	e052                	sd	s4,0(sp)
    80002a38:	1800                	addi	s0,sp,48
    80002a3a:	89aa                	mv	s3,a0
    80002a3c:	8a2e                	mv	s4,a1
  acquire(&itable.lock);
    80002a3e:	00255517          	auipc	a0,0x255
    80002a42:	b7250513          	addi	a0,a0,-1166 # 802575b0 <itable>
    80002a46:	00004097          	auipc	ra,0x4
    80002a4a:	a4c080e7          	jalr	-1460(ra) # 80006492 <acquire>
  empty = 0;
    80002a4e:	4901                	li	s2,0
  for(ip = &itable.inode[0]; ip < &itable.inode[NINODE]; ip++){
    80002a50:	00255497          	auipc	s1,0x255
    80002a54:	b7848493          	addi	s1,s1,-1160 # 802575c8 <itable+0x18>
    80002a58:	00256697          	auipc	a3,0x256
    80002a5c:	60068693          	addi	a3,a3,1536 # 80259058 <log>
    80002a60:	a039                	j	80002a6e <iget+0x44>
    if(empty == 0 && ip->ref == 0)    // Remember empty slot.
    80002a62:	02090b63          	beqz	s2,80002a98 <iget+0x6e>
  for(ip = &itable.inode[0]; ip < &itable.inode[NINODE]; ip++){
    80002a66:	08848493          	addi	s1,s1,136
    80002a6a:	02d48a63          	beq	s1,a3,80002a9e <iget+0x74>
    if(ip->ref > 0 && ip->dev == dev && ip->inum == inum){
    80002a6e:	449c                	lw	a5,8(s1)
    80002a70:	fef059e3          	blez	a5,80002a62 <iget+0x38>
    80002a74:	4098                	lw	a4,0(s1)
    80002a76:	ff3716e3          	bne	a4,s3,80002a62 <iget+0x38>
    80002a7a:	40d8                	lw	a4,4(s1)
    80002a7c:	ff4713e3          	bne	a4,s4,80002a62 <iget+0x38>
      ip->ref++;
    80002a80:	2785                	addiw	a5,a5,1
    80002a82:	c49c                	sw	a5,8(s1)
      release(&itable.lock);
    80002a84:	00255517          	auipc	a0,0x255
    80002a88:	b2c50513          	addi	a0,a0,-1236 # 802575b0 <itable>
    80002a8c:	00004097          	auipc	ra,0x4
    80002a90:	ab6080e7          	jalr	-1354(ra) # 80006542 <release>
      return ip;
    80002a94:	8926                	mv	s2,s1
    80002a96:	a03d                	j	80002ac4 <iget+0x9a>
    if(empty == 0 && ip->ref == 0)    // Remember empty slot.
    80002a98:	f7f9                	bnez	a5,80002a66 <iget+0x3c>
      empty = ip;
    80002a9a:	8926                	mv	s2,s1
    80002a9c:	b7e9                	j	80002a66 <iget+0x3c>
  if(empty == 0)
    80002a9e:	02090c63          	beqz	s2,80002ad6 <iget+0xac>
  ip->dev = dev;
    80002aa2:	01392023          	sw	s3,0(s2)
  ip->inum = inum;
    80002aa6:	01492223          	sw	s4,4(s2)
  ip->ref = 1;
    80002aaa:	4785                	li	a5,1
    80002aac:	00f92423          	sw	a5,8(s2)
  ip->valid = 0;
    80002ab0:	04092023          	sw	zero,64(s2)
  release(&itable.lock);
    80002ab4:	00255517          	auipc	a0,0x255
    80002ab8:	afc50513          	addi	a0,a0,-1284 # 802575b0 <itable>
    80002abc:	00004097          	auipc	ra,0x4
    80002ac0:	a86080e7          	jalr	-1402(ra) # 80006542 <release>
}
    80002ac4:	854a                	mv	a0,s2
    80002ac6:	70a2                	ld	ra,40(sp)
    80002ac8:	7402                	ld	s0,32(sp)
    80002aca:	64e2                	ld	s1,24(sp)
    80002acc:	6942                	ld	s2,16(sp)
    80002ace:	69a2                	ld	s3,8(sp)
    80002ad0:	6a02                	ld	s4,0(sp)
    80002ad2:	6145                	addi	sp,sp,48
    80002ad4:	8082                	ret
    panic("iget: no inodes");
    80002ad6:	00006517          	auipc	a0,0x6
    80002ada:	93a50513          	addi	a0,a0,-1734 # 80008410 <etext+0x410>
    80002ade:	00003097          	auipc	ra,0x3
    80002ae2:	434080e7          	jalr	1076(ra) # 80005f12 <panic>

0000000080002ae6 <fsinit>:
fsinit(int dev) {
    80002ae6:	7179                	addi	sp,sp,-48
    80002ae8:	f406                	sd	ra,40(sp)
    80002aea:	f022                	sd	s0,32(sp)
    80002aec:	ec26                	sd	s1,24(sp)
    80002aee:	e84a                	sd	s2,16(sp)
    80002af0:	e44e                	sd	s3,8(sp)
    80002af2:	1800                	addi	s0,sp,48
    80002af4:	892a                	mv	s2,a0
  bp = bread(dev, 1);
    80002af6:	4585                	li	a1,1
    80002af8:	00000097          	auipc	ra,0x0
    80002afc:	a86080e7          	jalr	-1402(ra) # 8000257e <bread>
    80002b00:	84aa                	mv	s1,a0
  memmove(sb, bp->data, sizeof(*sb));
    80002b02:	00255997          	auipc	s3,0x255
    80002b06:	a8e98993          	addi	s3,s3,-1394 # 80257590 <sb>
    80002b0a:	02000613          	li	a2,32
    80002b0e:	05850593          	addi	a1,a0,88
    80002b12:	854e                	mv	a0,s3
    80002b14:	ffffe097          	auipc	ra,0xffffe
    80002b18:	808080e7          	jalr	-2040(ra) # 8000031c <memmove>
  brelse(bp);
    80002b1c:	8526                	mv	a0,s1
    80002b1e:	00000097          	auipc	ra,0x0
    80002b22:	b90080e7          	jalr	-1136(ra) # 800026ae <brelse>
  if(sb.magic != FSMAGIC)
    80002b26:	0009a703          	lw	a4,0(s3)
    80002b2a:	102037b7          	lui	a5,0x10203
    80002b2e:	04078793          	addi	a5,a5,64 # 10203040 <_entry-0x6fdfcfc0>
    80002b32:	02f71263          	bne	a4,a5,80002b56 <fsinit+0x70>
  initlog(dev, &sb);
    80002b36:	00255597          	auipc	a1,0x255
    80002b3a:	a5a58593          	addi	a1,a1,-1446 # 80257590 <sb>
    80002b3e:	854a                	mv	a0,s2
    80002b40:	00001097          	auipc	ra,0x1
    80002b44:	b74080e7          	jalr	-1164(ra) # 800036b4 <initlog>
}
    80002b48:	70a2                	ld	ra,40(sp)
    80002b4a:	7402                	ld	s0,32(sp)
    80002b4c:	64e2                	ld	s1,24(sp)
    80002b4e:	6942                	ld	s2,16(sp)
    80002b50:	69a2                	ld	s3,8(sp)
    80002b52:	6145                	addi	sp,sp,48
    80002b54:	8082                	ret
    panic("invalid file system");
    80002b56:	00006517          	auipc	a0,0x6
    80002b5a:	8ca50513          	addi	a0,a0,-1846 # 80008420 <etext+0x420>
    80002b5e:	00003097          	auipc	ra,0x3
    80002b62:	3b4080e7          	jalr	948(ra) # 80005f12 <panic>

0000000080002b66 <iinit>:
{
    80002b66:	7179                	addi	sp,sp,-48
    80002b68:	f406                	sd	ra,40(sp)
    80002b6a:	f022                	sd	s0,32(sp)
    80002b6c:	ec26                	sd	s1,24(sp)
    80002b6e:	e84a                	sd	s2,16(sp)
    80002b70:	e44e                	sd	s3,8(sp)
    80002b72:	1800                	addi	s0,sp,48
  initlock(&itable.lock, "itable");
    80002b74:	00006597          	auipc	a1,0x6
    80002b78:	8c458593          	addi	a1,a1,-1852 # 80008438 <etext+0x438>
    80002b7c:	00255517          	auipc	a0,0x255
    80002b80:	a3450513          	addi	a0,a0,-1484 # 802575b0 <itable>
    80002b84:	00004097          	auipc	ra,0x4
    80002b88:	87a080e7          	jalr	-1926(ra) # 800063fe <initlock>
  for(i = 0; i < NINODE; i++) {
    80002b8c:	00255497          	auipc	s1,0x255
    80002b90:	a4c48493          	addi	s1,s1,-1460 # 802575d8 <itable+0x28>
    80002b94:	00256997          	auipc	s3,0x256
    80002b98:	4d498993          	addi	s3,s3,1236 # 80259068 <log+0x10>
    initsleeplock(&itable.inode[i].lock, "inode");
    80002b9c:	00006917          	auipc	s2,0x6
